///////////////////////////////////////////////////////////////////////////////
//
// IAR ANSI C/C++ Compiler V7.20.2.7424/W32 for ARM       15/May/2016  17:19:05
// Copyright 1999-2014 IAR Systems AB.
//
//    Cpu mode     =  thumb
//    Endian       =  little
//    Source file  =  
//        D:\快盘同步\2016省赛\LPLD_OSKinetis_V3\lib\LPLD\DEV\DEV_LCD.c
//    Command line =  
//        D:\快盘同步\2016省赛\LPLD_OSKinetis_V3\lib\LPLD\DEV\DEV_LCD.c -D
//        LPLD_K60 -lCN
//        D:\快盘同步\2016省赛\LPLD_OSKinetis_V3\project\NXP_powerctl\iar\FLASH\List\
//        -lB
//        D:\快盘同步\2016省赛\LPLD_OSKinetis_V3\project\NXP_powerctl\iar\FLASH\List\
//        -o
//        D:\快盘同步\2016省赛\LPLD_OSKinetis_V3\project\NXP_powerctl\iar\FLASH\Obj\
//        --no_cse --no_unroll --no_inline --no_code_motion --no_tbaa
//        --no_clustering --no_scheduling --debug --endian=little
//        --cpu=Cortex-M4 -e --fpu=None --dlib_config "C:\Program Files
//        (x86)\IAR Systems\Embedded Workbench
//        7.0\arm\INC\c\DLib_Config_Normal.h" -I
//        D:\快盘同步\2016省赛\LPLD_OSKinetis_V3\project\NXP_powerctl\iar\..\app\
//        -I
//        D:\快盘同步\2016省赛\LPLD_OSKinetis_V3\project\NXP_powerctl\iar\..\app\BSP\
//        -I
//        D:\快盘同步\2016省赛\LPLD_OSKinetis_V3\project\NXP_powerctl\iar\..\app\ITAC\
//        -I
//        D:\快盘同步\2016省赛\LPLD_OSKinetis_V3\project\NXP_powerctl\iar\..\app\CTL\
//        -I
//        D:\快盘同步\2016省赛\LPLD_OSKinetis_V3\project\NXP_powerctl\iar\..\..\..\lib\CPU\
//        -I
//        D:\快盘同步\2016省赛\LPLD_OSKinetis_V3\project\NXP_powerctl\iar\..\..\..\lib\common\
//        -I
//        D:\快盘同步\2016省赛\LPLD_OSKinetis_V3\project\NXP_powerctl\iar\..\..\..\lib\LPLD\
//        -I
//        D:\快盘同步\2016省赛\LPLD_OSKinetis_V3\project\NXP_powerctl\iar\..\..\..\lib\LPLD\HW\
//        -I
//        D:\快盘同步\2016省赛\LPLD_OSKinetis_V3\project\NXP_powerctl\iar\..\..\..\lib\LPLD\DEV\
//        -I
//        D:\快盘同步\2016省赛\LPLD_OSKinetis_V3\project\NXP_powerctl\iar\..\..\..\lib\uCOS-II\Ports\
//        -I
//        D:\快盘同步\2016省赛\LPLD_OSKinetis_V3\project\NXP_powerctl\iar\..\..\..\lib\uCOS-II\Source\
//        -I
//        D:\快盘同步\2016省赛\LPLD_OSKinetis_V3\project\NXP_powerctl\iar\..\..\..\lib\FatFs\
//        -I
//        D:\快盘同步\2016省赛\LPLD_OSKinetis_V3\project\NXP_powerctl\iar\..\..\..\lib\FatFs\option\
//        -I
//        D:\快盘同步\2016省赛\LPLD_OSKinetis_V3\project\NXP_powerctl\iar\..\..\..\lib\USB\common\
//        -I
//        D:\快盘同步\2016省赛\LPLD_OSKinetis_V3\project\NXP_powerctl\iar\..\..\..\lib\USB\driver\
//        -I
//        D:\快盘同步\2016省赛\LPLD_OSKinetis_V3\project\NXP_powerctl\iar\..\..\..\lib\USB\descriptor\
//        -I
//        D:\快盘同步\2016省赛\LPLD_OSKinetis_V3\project\NXP_powerctl\iar\..\..\..\lib\USB\class\
//        -On -I "C:\Program Files (x86)\IAR Systems\Embedded Workbench
//        7.0\arm\CMSIS\Include\" -D ARM_MATH_CM4
//    List file    =  
//        D:\快盘同步\2016省赛\LPLD_OSKinetis_V3\project\NXP_powerctl\iar\FLASH\List\DEV_LCD.s
//
///////////////////////////////////////////////////////////////////////////////

        #define SHT_PROGBITS 0x1

        EXTERN LPLD_FlexBus_Init
        EXTERN LPLD_GPIO_Init
        EXTERN __aeabi_memcpy4

        PUBLIC CurX
        PUBLIC CurY
        PUBLIC LCD_GRAM
        PUBLIC LPLD_LCD_BGR2RGB
        PUBLIC LPLD_LCD_DrawLine
        PUBLIC LPLD_LCD_DrawRectangle
        PUBLIC LPLD_LCD_DrawSquare
        PUBLIC LPLD_LCD_DrawU8Gray
        PUBLIC LPLD_LCD_FillBackground
        PUBLIC LPLD_LCD_FillBackgroundGRAM
        PUBLIC LPLD_LCD_GRAMDrawHLine
        PUBLIC LPLD_LCD_GRAMFillRec
        PUBLIC LPLD_LCD_GetPoint
        PUBLIC LPLD_LCD_INFO
        PUBLIC LPLD_LCD_Init
        PUBLIC LPLD_LCD_PrintNum
        PUBLIC LPLD_LCD_PrintNumLine
        PUBLIC LPLD_LCD_PrintString
        PUBLIC LPLD_LCD_PrintStringLine
        PUBLIC LPLD_LCD_SetPoint
        PUBLIC LPLD_LCD_ShowChar
        PUBLIC LPLD_LCD_ShowNum
        PUBLIC LPLD_LCD_ShowString
        PUBLIC LPLD_LCD_U8GRAY2RGB
        PUBLIC PreX
        PUBLIC PreY
        PUBLIC asc2_1608
        PUBLIC mypow

// D:\快盘同步\2016省赛\LPLD_OSKinetis_V3\lib\LPLD\DEV\DEV_LCD.c
//    1 /**
//    2  * @file DEV_LCD.c
//    3  * @version 0.2[By LPLD]
//    4  * @date 2013-10-21
//    5  * @brief LCD设备驱动程序
//    6  *
//    7  * 更改建议:可根据实际硬件修改
//    8  *
//    9  * 版权所有:北京拉普兰德电子技术有限公司
//   10  * http://www.lpld.cn
//   11  * mail:support@lpld.cn
//   12  *
//   13  * @par
//   14  * 本代码由拉普兰德[LPLD]开发并维护，并向所有使用者开放源代码。
//   15  * 开发者可以随意修使用或改源代码。但本段及以上注释应予以保留。
//   16  * 不得更改或删除原版权所有者姓名，二次开发者可以加注二次版权所有者。
//   17  * 但应在遵守此协议的基础上，开放源代码、不得出售代码本身。
//   18  * 拉普兰德不负责由于使用本代码所带来的任何事故、法律责任或相关不良影响。
//   19  * 拉普兰德无义务解释、说明本代码的具体原理、功能、实现方法。
//   20  * 除非拉普兰德[LPLD]授权，开发者不得将本代码用于商业产品。
//   21  *
//   22  * 0.2-2013-10-21 优化初始化函数、字符串数字显示函数
//   23  */
//   24 #include "DEV_LCD.h"
//   25 #include "Font_ASC.h"

        SECTION `.rodata`:CONST:REORDER:NOROOT(2)
// __absolute unsigned char const asc2_1608[95][16]
asc2_1608:
        DATA
        DC8 0, 0, 0, 0, 0, 0, 0, 0, 0, 0, 0, 0, 0, 0, 0, 0, 0, 0, 0, 8, 8, 8, 8
        DC8 8, 8, 8, 0, 0, 24, 24, 0, 0, 0, 72, 108, 36, 18, 0, 0, 0, 0, 0, 0
        DC8 0, 0, 0, 0, 0, 0, 0, 0, 36, 36, 36, 127, 18, 18, 18, 127, 18, 18
        DC8 18, 0, 0, 0, 0, 8, 28, 42, 42, 10, 12, 24, 40, 40, 42, 42, 28, 8, 8
        DC8 0, 0, 0, 34, 37, 21, 21, 21, 42, 88, 84, 84, 84, 34, 0, 0, 0, 0, 0
        DC8 12, 18, 18, 18, 10, 118, 37, 41, 17, 145, 110, 0, 0, 0, 6, 6, 4, 3
        DC8 0, 0, 0, 0, 0, 0, 0, 0, 0, 0, 0, 0, 64, 32, 16, 16, 8, 8, 8, 8, 8
        DC8 8, 16, 16, 32, 64, 0, 0, 2, 4, 8, 8, 16, 16, 16, 16, 16, 16, 8, 8
        DC8 4, 2, 0, 0, 0, 0, 0, 8, 8, 107, 28, 28, 107, 8, 8, 0, 0, 0, 0, 0, 0
        DC8 0, 0, 8, 8, 8, 8, 127, 8, 8, 8, 8, 0, 0, 0, 0, 0, 0, 0, 0, 0, 0, 0
        DC8 0, 0, 0, 0, 6, 6, 4, 3, 0, 0, 0, 0, 0, 0, 0, 0, 254, 0, 0, 0, 0, 0
        DC8 0, 0, 0, 0, 0, 0, 0, 0, 0, 0, 0, 0, 0, 0, 6, 6, 0, 0, 0, 0, 128, 64
        DC8 64, 32, 32, 16, 16, 8, 8, 4, 4, 2, 2, 0, 0, 0, 0, 24, 36, 66, 66
        DC8 66, 66, 66, 66, 66, 36, 24, 0, 0, 0, 0, 0, 8, 14, 8, 8, 8, 8, 8, 8
        DC8 8, 8, 62, 0, 0, 0, 0, 0, 60, 66, 66, 66, 32, 32, 16, 8, 4, 66, 126
        DC8 0, 0, 0, 0, 0, 60, 66, 66, 32, 24, 32, 64, 64, 66, 34, 28, 0, 0, 0
        DC8 0, 0, 32, 48, 40, 36, 36, 34, 34, 126, 32, 32, 120, 0, 0, 0, 0, 0
        DC8 126, 2, 2, 2, 26, 38, 64, 64, 66, 34, 28, 0, 0, 0, 0, 0, 56, 36, 2
        DC8 2, 26, 38, 66, 66, 66, 36, 24, 0, 0, 0, 0, 0, 126, 34, 34, 16, 16
        DC8 8, 8, 8, 8, 8, 8, 0, 0, 0, 0, 0, 60, 66, 66, 66, 36, 24, 36, 66, 66
        DC8 66, 60, 0, 0, 0, 0, 0, 24, 36, 66, 66, 66, 100, 88, 64, 64, 36, 28
        DC8 0, 0, 0, 0, 0, 0, 0, 0, 24, 24, 0, 0, 0, 0, 24, 24, 0, 0, 0, 0, 0
        DC8 0, 0, 0, 0, 8, 0, 0, 0, 0, 0, 8, 8, 4, 0, 0, 0, 64, 32, 16, 8, 4, 2
        DC8 4, 8, 16, 32, 64, 0, 0, 0, 0, 0, 0, 0, 0, 127, 0, 0, 0, 127, 0, 0
        DC8 0, 0, 0, 0, 0, 0, 2, 4, 8, 16, 32, 64, 32, 16, 8, 4, 2, 0, 0, 0, 0
        DC8 0, 60, 66, 66, 70, 64, 32, 16, 16, 0, 24, 24, 0, 0, 0, 0, 0, 28, 34
        DC8 90, 85, 85, 85, 85, 45, 66, 34, 28, 0, 0, 0, 0, 0, 8, 8, 24, 20, 20
        DC8 36, 60, 34, 66, 66, 231, 0, 0, 0, 0, 0, 31, 34, 34, 34, 30, 34, 66
        DC8 66, 66, 34, 31, 0, 0, 0, 0, 0, 124, 66, 66, 1, 1, 1, 1, 1, 66, 34
        DC8 28, 0, 0, 0, 0, 0, 31, 34, 66, 66, 66, 66, 66, 66, 66, 34, 31, 0, 0
        DC8 0, 0, 0, 63, 66, 18, 18, 30, 18, 18, 2, 66, 66, 63, 0, 0, 0, 0, 0
        DC8 63, 66, 18, 18, 30, 18, 18, 2, 2, 2, 7, 0, 0, 0, 0, 0, 60, 34, 34
        DC8 1, 1, 1, 113, 33, 34, 34, 28, 0, 0, 0, 0, 0, 231, 66, 66, 66, 66
        DC8 126, 66, 66, 66, 66, 231, 0, 0, 0, 0, 0, 62, 8, 8, 8, 8, 8, 8, 8, 8
        DC8 8, 62, 0, 0, 0, 0, 0, 124, 16, 16, 16, 16, 16, 16, 16, 16, 16, 16
        DC8 17, 15, 0, 0, 0, 119, 34, 18, 10, 14, 10, 18, 18, 34, 34, 119, 0, 0
        DC8 0, 0, 0, 7, 2, 2, 2, 2, 2, 2, 2, 2, 66, 127, 0, 0, 0, 0, 0, 119, 54
        DC8 54, 54, 54, 42, 42, 42, 42, 42, 107, 0, 0, 0, 0, 0, 227, 70, 70, 74
        DC8 74, 82, 82, 82, 98, 98, 71, 0, 0, 0, 0, 0, 28, 34, 65, 65, 65, 65
        DC8 65, 65, 65, 34, 28, 0, 0, 0, 0, 0, 63, 66, 66, 66, 66, 62, 2, 2, 2
        DC8 2, 7, 0, 0, 0, 0, 0, 28, 34, 65, 65, 65, 65, 65, 77, 83, 50, 28, 96
        DC8 0, 0, 0, 0, 63, 66, 66, 66, 62, 18, 18, 34, 34, 66, 199, 0, 0, 0, 0
        DC8 0, 124, 66, 66, 2, 4, 24, 32, 64, 66, 66, 62, 0, 0, 0, 0, 0, 127
        DC8 73, 8, 8, 8, 8, 8, 8, 8, 8, 28, 0, 0, 0, 0, 0, 231, 66, 66, 66, 66
        DC8 66, 66, 66, 66, 66, 60, 0, 0, 0, 0, 0, 231, 66, 66, 34, 36, 36, 20
        DC8 20, 24, 8, 8, 0, 0, 0, 0, 0, 107, 73, 73, 73, 73, 85, 85, 54, 34
        DC8 34, 34, 0, 0, 0, 0, 0, 231, 66, 36, 36, 24, 24, 24, 36, 36, 66, 231
        DC8 0, 0, 0, 0, 0, 119, 34, 34, 20, 20, 8, 8, 8, 8, 8, 28, 0, 0, 0, 0
        DC8 0, 126, 33, 32, 16, 16, 8, 4, 4, 66, 66, 63, 0, 0, 0, 120, 8, 8, 8
        DC8 8, 8, 8, 8, 8, 8, 8, 8, 8, 120, 0, 0, 0, 2, 2, 4, 4, 8, 8, 8, 16
        DC8 16, 32, 32, 32, 64, 64, 0, 30, 16, 16, 16, 16, 16, 16, 16, 16, 16
        DC8 16, 16, 16, 30, 0, 0, 56, 68, 0, 0, 0, 0, 0, 0, 0, 0, 0, 0, 0, 0, 0
        DC8 0, 0, 0, 0, 0, 0, 0, 0, 0, 0, 0, 0, 0, 0, 0, 255, 0, 6, 8, 0, 0, 0
        DC8 0, 0, 0, 0, 0, 0, 0, 0, 0, 0, 0, 0, 0, 0, 0, 0, 0, 60, 66, 120, 68
        DC8 66, 66, 252, 0, 0, 0, 0, 0, 3, 2, 2, 2, 26, 38, 66, 66, 66, 38, 26
        DC8 0, 0, 0, 0, 0, 0, 0, 0, 0, 56, 68, 2, 2, 2, 68, 56, 0, 0, 0, 0, 0
        DC8 96, 64, 64, 64, 120, 68, 66, 66, 66, 100, 216, 0, 0, 0, 0, 0, 0, 0
        DC8 0, 0, 60, 66, 126, 2, 2, 66, 60, 0, 0, 0, 0, 0, 240, 136, 8, 8, 126
        DC8 8, 8, 8, 8, 8, 62, 0, 0, 0, 0, 0, 0, 0, 0, 0, 124, 34, 34, 28, 2
        DC8 60, 66, 66, 60, 0, 0, 0, 3, 2, 2, 2, 58, 70, 66, 66, 66, 66, 231, 0
        DC8 0, 0, 0, 0, 12, 12, 0, 0, 14, 8, 8, 8, 8, 8, 62, 0, 0, 0, 0, 0, 48
        DC8 48, 0, 0, 56, 32, 32, 32, 32, 32, 32, 34, 30, 0, 0, 0, 3, 2, 2, 2
        DC8 114, 18, 10, 22, 18, 34, 119, 0, 0, 0, 0, 0, 14, 8, 8, 8, 8, 8, 8
        DC8 8, 8, 8, 62, 0, 0, 0, 0, 0, 0, 0, 0, 0, 127, 146, 146, 146, 146
        DC8 146, 183, 0, 0, 0, 0, 0, 0, 0, 0, 0, 59, 70, 66, 66, 66, 66, 231, 0
        DC8 0, 0, 0, 0, 0, 0, 0, 0, 60, 66, 66, 66, 66, 66, 60, 0, 0, 0, 0, 0
        DC8 0, 0, 0, 0, 27, 38, 66, 66, 66, 34, 30, 2, 7, 0, 0, 0, 0, 0, 0, 0
        DC8 120, 68, 66, 66, 66, 68, 120, 64, 224, 0, 0, 0, 0, 0, 0, 0, 119, 76
        DC8 4, 4, 4, 4, 31, 0, 0, 0, 0, 0, 0, 0, 0, 0, 124, 66, 2, 60, 64, 66
        DC8 62, 0, 0, 0, 0, 0, 0, 0, 8, 8, 62, 8, 8, 8, 8, 8, 48, 0, 0, 0, 0, 0
        DC8 0, 0, 0, 0, 99, 66, 66, 66, 66, 98, 220, 0, 0, 0, 0, 0, 0, 0, 0, 0
        DC8 231, 66, 36, 36, 20, 8, 8, 0, 0, 0, 0, 0, 0, 0, 0, 0, 235, 73, 73
        DC8 85, 85, 34, 34, 0, 0, 0, 0, 0, 0, 0, 0, 0, 118, 36, 24, 24, 24, 36
        DC8 110, 0, 0, 0, 0, 0, 0, 0, 0, 0, 231, 66, 36, 36, 20, 24, 8, 8, 7, 0
        DC8 0, 0, 0, 0, 0, 0, 126, 34, 16, 8, 8, 68, 126, 0, 0, 0, 192, 32, 32
        DC8 32, 32, 32, 16, 32, 32, 32, 32, 32, 32, 192, 0, 16, 16, 16, 16, 16
        DC8 16, 16, 16, 16, 16, 16, 16, 16, 16, 16, 16, 0, 6, 8, 8, 8, 8, 8, 16
        DC8 8, 8, 8, 8, 8, 8, 6, 0, 12, 50, 194, 0, 0, 0, 0, 0, 0, 0, 0, 0, 0
        DC8 0, 0, 0
//   26 
//   27 static void LPLD_LCD_Reset(void);
//   28 static void LPLD_LCD_FLEXBUS_Init(uint16 lcd_id);
//   29 static void LPLD_LCD_IO_Cfg(void);
//   30 static void LPLD_LCD_WriteIndex(uint16 index);
//   31 static void LPLD_LCD_WriteData(uint16 data);
//   32 static uint16 LPLD_LCD_ReadData(void);
//   33 static void LPLD_LCD_WriteReg(uint16 LCD_Reg,uint16 LCD_RegValue);
//   34 static uint16 LPLD_LCD_ReadReg(uint16 LCD_Reg);
//   35 static void LPLD_LCD_SetCursor( uint16 Xpos, uint16 Ypos );
//   36 static void LPLD_LCD_Delayms(uint16 ms);
//   37 

        SECTION `.bss`:DATA:REORDER:NOROOT(2)
//   38 LPLD_LCD_Info_t LPLD_LCD_INFO;
LPLD_LCD_INFO:
        DS8 8

        SECTION `.bss`:DATA:REORDER:NOROOT(1)
//   39 uint16 PreX=0, PreY=0;
PreX:
        DS8 2

        SECTION `.bss`:DATA:REORDER:NOROOT(1)
PreY:
        DS8 2

        SECTION `.bss`:DATA:REORDER:NOROOT(2)
//   40 uint16 *LCD_GRAM;
LCD_GRAM:
        DS8 4

        SECTION `.bss`:DATA:REORDER:NOROOT(1)
//   41 uint16 CurX=0, CurY=0;
CurX:
        DS8 2

        SECTION `.bss`:DATA:REORDER:NOROOT(1)
CurY:
        DS8 2
//   42 
//   43 /*
//   44  * LPLD_LCD_Delayms
//   45  * LCD内部延时函数，内部调用
//   46  */

        SECTION `.text`:CODE:NOROOT(2)
        THUMB
//   47 static void LPLD_LCD_Delayms(uint16 n)
//   48 {
//   49   uint16 i;
//   50   while(n--)
LPLD_LCD_Delayms:
??LPLD_LCD_Delayms_0:
        MOVS     R2,R0
        SUBS     R0,R2,#+1
        UXTH     R2,R2            ;; ZeroExt  R2,R2,#+16,#+16
        CMP      R2,#+0
        BEQ.N    ??LPLD_LCD_Delayms_1
//   51   {
//   52     for(i=0; i<400; i++)
        MOVS     R2,#+0
        MOVS     R1,R2
??LPLD_LCD_Delayms_2:
        UXTH     R1,R1            ;; ZeroExt  R1,R1,#+16,#+16
        CMP      R1,#+400
        BGE.N    ??LPLD_LCD_Delayms_0
//   53     {
//   54       asm("nop");
        nop
//   55     }
        ADDS     R1,R1,#+1
        B.N      ??LPLD_LCD_Delayms_2
//   56   }
//   57 }
??LPLD_LCD_Delayms_1:
        BX       LR               ;; return
//   58 
//   59 /*
//   60  * LPLD_LCD_FLEXBUS_Init
//   61  * LCD FlexBus初始化函数，内部调用
//   62  * 
//   63  * 说明:
//   64  *    本初始化函数用来配置FlexBus与LCD的连接
//   65  *    配置为16位端口大小
//   66  *    地址与数据线复用
//   67  *    数据及地址线为FB_AD[15:0]
//   68  *    RS:FB_AD[16]
//   69  *    CS:FB_CS0
//   70  *    RW:FB_FB_RW
//   71  *    RD:FB_OE 
//   72  */

        SECTION `.text`:CODE:NOROOT(1)
        THUMB
//   73 static void LPLD_LCD_FLEXBUS_Init(uint16 lcd_id)
//   74 {
LPLD_LCD_FLEXBUS_Init:
        PUSH     {R4,LR}
        SUB      SP,SP,#+24
        MOVS     R4,R0
//   75   FB_InitTypeDef fb_init;
//   76   fb_init.FB_Fbx = FB0;
        MOVS     R0,#+0
        STRB     R0,[SP, #+4]
//   77   fb_init.FB_ChipSelAddress = LCD_CMD_ADDRESS;
        MOVS     R0,#+1610612736
        STR      R0,[SP, #+8]
//   78   fb_init.FB_AutoAckEnable = TRUE;
        MOVS     R0,#+1
        STRB     R0,[SP, #+18]
//   79   fb_init.FB_IsRightJustied = TRUE;
        MOVS     R0,#+1
        STRB     R0,[SP, #+17]
//   80   fb_init.FB_WateStates = 0x02;
        MOVS     R0,#+2
        STRB     R0,[SP, #+19]
//   81   fb_init.FB_PortSize = FB_SIZE_16BIT;
        MOVS     R0,#+2
        STRB     R0,[SP, #+16]
//   82   fb_init.FB_AddressSpace = FB_SPACE_KB(128);   //128K
        MOVS     R0,#+131072
        STR      R0,[SP, #+12]
//   83   fb_init.FB_ReadAddrHold = 0;
        MOVS     R0,#+0
        STRB     R0,[SP, #+20]
//   84   fb_init.FB_WriteAddrHold = 0;
        MOVS     R0,#+0
        STRB     R0,[SP, #+21]
//   85   LPLD_FlexBus_Init(fb_init); 
        ADD      R1,SP,#+4
        SUB      SP,SP,#+16
        MOV      R0,SP
        MOVS     R2,#+20
        BL       __aeabi_memcpy4
        POP      {R0-R3}
        BL       LPLD_FlexBus_Init
//   86 }
        ADD      SP,SP,#+24
        POP      {R4,PC}          ;; return
//   87 
//   88 /*
//   89  * LPLD_LCD_IO_Cfg
//   90  * LCD IO引脚初始化，内部调用
//   91  *
//   92  * 说明：
//   93  * 此处初始化复位引脚，可根据实际硬件更改
//   94  */

        SECTION `.text`:CODE:NOROOT(1)
        THUMB
//   95 static void LPLD_LCD_IO_Cfg(void)
//   96 {
LPLD_LCD_IO_Cfg:
        PUSH     {LR}
        SUB      SP,SP,#+28
//   97   GPIO_InitTypeDef ptc_init;
//   98   //RST 
//   99   ptc_init.GPIO_PTx = PTC;
        LDR.W    R0,??DataTable19  ;; 0x400ff080
        STR      R0,[SP, #+4]
//  100   ptc_init.GPIO_Pins = GPIO_Pin19;
        MOVS     R0,#+524288
        STR      R0,[SP, #+8]
//  101   ptc_init.GPIO_Dir = DIR_OUTPUT;
        MOVS     R0,#+1
        STRB     R0,[SP, #+16]
//  102   ptc_init.GPIO_Output = OUTPUT_H;
        MOVS     R0,#+1
        STRB     R0,[SP, #+17]
//  103   ptc_init.GPIO_PinControl = IRQC_DIS; 
        MOVS     R0,#+0
        STR      R0,[SP, #+12]
//  104   LPLD_GPIO_Init(ptc_init);    
        ADD      R1,SP,#+4
        SUB      SP,SP,#+16
        MOV      R0,SP
        MOVS     R2,#+20
        BL       __aeabi_memcpy4
        POP      {R0-R3}
        BL       LPLD_GPIO_Init
//  105 }
        ADD      SP,SP,#+28
        POP      {PC}             ;; return
//  106 
//  107 /*
//  108  * LPLD_LCD_WriteIndex
//  109  * LCD写控制命令，内部调用
//  110  */

        SECTION `.text`:CODE:NOROOT(1)
        THUMB
//  111 static void LPLD_LCD_WriteIndex(uint16 index)
//  112 {
//  113   *(vuint16*)LCD_CMD_ADDRESS = index;  //write
LPLD_LCD_WriteIndex:
        MOVS     R1,#+1610612736
        STRH     R0,[R1, #+0]
//  114 }
        BX       LR               ;; return
//  115 
//  116 /*
//  117  * LPLD_LCD_WriteData
//  118  * LCD写数据，内部调用
//  119  */

        SECTION `.text`:CODE:NOROOT(1)
        THUMB
//  120 void LPLD_LCD_WriteData(uint16 data)
//  121 {
//  122   *(vuint16*)LCD_DATA_ADDRESS = data;  //write
LPLD_LCD_WriteData:
        LDR.W    R1,??DataTable19_1  ;; 0x60010000
        STRH     R0,[R1, #+0]
//  123 }
        BX       LR               ;; return
//  124 
//  125 /*
//  126  * LPLD_LCD_ReadData
//  127  * LCD读数据，内部调用
//  128  */

        SECTION `.text`:CODE:NOROOT(1)
        THUMB
//  129 static uint16 LPLD_LCD_ReadData(void)
//  130 { 
//  131   uint16 value;
//  132   value = *(vuint16*)LCD_DATA_ADDRESS;  //read
LPLD_LCD_ReadData:
        LDR.W    R1,??DataTable19_1  ;; 0x60010000
        LDRH     R1,[R1, #+0]
        MOVS     R0,R1
//  133   return value;
        UXTH     R0,R0            ;; ZeroExt  R0,R0,#+16,#+16
        BX       LR               ;; return
//  134 }
//  135 
//  136 /*
//  137  * LPLD_LCD_WriteReg
//  138  * LCD写寄存器，内部调用
//  139  */

        SECTION `.text`:CODE:NOROOT(1)
        THUMB
//  140 static void LPLD_LCD_WriteReg(uint16 LCD_Reg,uint16 LCD_RegValue)
//  141 { 
LPLD_LCD_WriteReg:
        PUSH     {R3-R5,LR}
        MOVS     R4,R0
        MOVS     R5,R1
//  142   /* Write 16-bit Index, then Write Reg */  
//  143   LPLD_LCD_WriteIndex(LCD_Reg);         
        MOVS     R0,R4
        UXTH     R0,R0            ;; ZeroExt  R0,R0,#+16,#+16
        BL       LPLD_LCD_WriteIndex
//  144   /* Write 16-bit Reg */
//  145   LPLD_LCD_WriteData(LCD_RegValue);  
        MOVS     R0,R5
        UXTH     R0,R0            ;; ZeroExt  R0,R0,#+16,#+16
        BL       LPLD_LCD_WriteData
//  146 }
        POP      {R0,R4,R5,PC}    ;; return
//  147 
//  148 /*
//  149  * LPLD_LCD_ReadReg
//  150  * LCD读寄存器，内部调用
//  151  */

        SECTION `.text`:CODE:NOROOT(1)
        THUMB
//  152 static uint16 LPLD_LCD_ReadReg(uint16 LCD_Reg)
//  153 {
LPLD_LCD_ReadReg:
        PUSH     {R3-R5,LR}
        MOVS     R4,R0
//  154   uint16 LCD_RAM;
//  155   /* Write 16-bit Index (then Read Reg) */
//  156   LPLD_LCD_WriteIndex(LCD_Reg);
        MOVS     R0,R4
        UXTH     R0,R0            ;; ZeroExt  R0,R0,#+16,#+16
        BL       LPLD_LCD_WriteIndex
//  157   /* Read 16-bit Reg */
//  158   LCD_RAM = LPLD_LCD_ReadData();      	
        BL       LPLD_LCD_ReadData
        MOVS     R5,R0
//  159   return LCD_RAM;
        MOVS     R0,R5
        UXTH     R0,R0            ;; ZeroExt  R0,R0,#+16,#+16
        POP      {R1,R4,R5,PC}    ;; return
//  160 }
//  161 
//  162 /*
//  163  * LPLD_LCD_SetCursor
//  164  * 设置LCD内部GRAM光标位置，内部调用
//  165  */

        SECTION `.text`:CODE:NOROOT(1)
        THUMB
//  166 static void LPLD_LCD_SetCursor( uint16 Xpos, uint16 Ypos )
//  167 {
LPLD_LCD_SetCursor:
        PUSH     {R4-R6,LR}
        MOVS     R4,R0
        MOVS     R5,R1
//  168 #if(HORIZONTAL)
//  169     
//  170   uint16 temp = Xpos;
        MOVS     R6,R4
//  171   Xpos = Ypos;
        MOVS     R4,R5
//  172   Ypos = temp;  
        MOVS     R5,R6
//  173 
//  174 #else
//  175             
//  176 #endif
//  177   LPLD_LCD_WriteReg(LPLD_LCD_INFO.X_GRAM, Xpos );      
        MOVS     R1,R4
        UXTH     R1,R1            ;; ZeroExt  R1,R1,#+16,#+16
        LDR.W    R0,??DataTable19_2
        LDRH     R0,[R0, #+4]
        BL       LPLD_LCD_WriteReg
//  178   LPLD_LCD_WriteReg(LPLD_LCD_INFO.Y_GRAM, Ypos );          
        MOVS     R1,R5
        UXTH     R1,R1            ;; ZeroExt  R1,R1,#+16,#+16
        LDR.W    R0,??DataTable19_2
        LDRH     R0,[R0, #+6]
        BL       LPLD_LCD_WriteReg
//  179 }
        POP      {R4-R6,PC}       ;; return
//  180 
//  181 
//  182 /*
//  183  * LPLD_LCD_Reset
//  184  * 复位LCD控制器，内部调用
//  185  */

        SECTION `.text`:CODE:NOROOT(1)
        THUMB
//  186 static void LPLD_LCD_Reset(void)
//  187 {
LPLD_LCD_Reset:
        PUSH     {R7,LR}
//  188   LCD_CLR_RST;
        MOVS     R0,#+0
        LDR.W    R1,??DataTable19_3  ;; 0x43fe104c
        STR      R0,[R1, #+0]
//  189   LPLD_LCD_Delayms(10); //延时
        MOVS     R0,#+10
        BL       LPLD_LCD_Delayms
//  190   LCD_SET_RST;
        MOVS     R0,#+1
        LDR.W    R1,??DataTable19_3  ;; 0x43fe104c
        STR      R0,[R1, #+0]
//  191 }
        POP      {R0,PC}          ;; return
//  192 
//  193 /*
//  194  * LPLD_LCD_Init
//  195  * LCD初始化
//  196  * 
//  197  * 参数:
//  198  *    无
//  199  *
//  200  * 输出:
//  201  *    LCD控制型号
//  202  *    0x9320--9320
//  203  *    0x8989--8989
//  204  */

        SECTION `.text`:CODE:NOROOT(1)
        THUMB
//  205 uint16 LPLD_LCD_Init(void)
//  206 {
LPLD_LCD_Init:
        PUSH     {R4,LR}
//  207   uint16 dID;
//  208    
//  209   LPLD_LCD_FLEXBUS_Init(0);
        MOVS     R0,#+0
        BL       LPLD_LCD_FLEXBUS_Init
//  210   LPLD_LCD_IO_Cfg();
        BL       LPLD_LCD_IO_Cfg
//  211   LPLD_LCD_Delayms(500);
        MOV      R0,#+500
        BL       LPLD_LCD_Delayms
//  212   
//  213   LPLD_LCD_Reset();                 //硬件复位
        BL       LPLD_LCD_Reset
//  214   
//  215   dID = LPLD_LCD_ReadReg(0x0000);   //获取LCD控制器设备ID
        MOVS     R0,#+0
        BL       LPLD_LCD_ReadReg
        MOVS     R4,R0
//  216     
//  217   LPLD_LCD_INFO.Lcd_Id = dID;
        LDR.W    R0,??DataTable19_2
        STRH     R4,[R0, #+0]
//  218   
//  219   if(dID == 0x9320)
        UXTH     R4,R4            ;; ZeroExt  R4,R4,#+16,#+16
        MOVW     R0,#+37664
        CMP      R4,R0
        BNE.W    ??LPLD_LCD_Init_0
//  220   {
//  221     LPLD_LCD_INFO.Write_GRAM = 0x0022;
        MOVS     R0,#+34
        LDR.W    R1,??DataTable19_2
        STRH     R0,[R1, #+2]
//  222     LPLD_LCD_INFO.X_GRAM = 0x0020;
        MOVS     R0,#+32
        LDR.W    R1,??DataTable19_2
        STRH     R0,[R1, #+4]
//  223     LPLD_LCD_INFO.Y_GRAM = 0x0021;
        MOVS     R0,#+33
        LDR.W    R1,??DataTable19_2
        STRH     R0,[R1, #+6]
//  224     
//  225     LPLD_LCD_WriteReg(0x00,0x0001);   //开启LCD内部晶振，并等待10ms稳定
        MOVS     R1,#+1
        MOVS     R0,#+0
        BL       LPLD_LCD_WriteReg
//  226     LPLD_LCD_Delayms(10);
        MOVS     R0,#+10
        BL       LPLD_LCD_Delayms
//  227     
//  228     LPLD_LCD_WriteReg(0x01,0x0000);   //Driver Output Control
        MOVS     R1,#+0
        MOVS     R0,#+1
        BL       LPLD_LCD_WriteReg
//  229     LPLD_LCD_WriteReg(0x02,0x0700);   //LCD Driving Wave Control
        MOV      R1,#+1792
        MOVS     R0,#+2
        BL       LPLD_LCD_WriteReg
//  230     LPLD_LCD_WriteReg(0x03,0x1008);   //Entry Mode
        MOVW     R1,#+4104
        MOVS     R0,#+3
        BL       LPLD_LCD_WriteReg
//  231     LPLD_LCD_WriteReg(0x04,0x0000);   //Resizing Control
        MOVS     R1,#+0
        MOVS     R0,#+4
        BL       LPLD_LCD_WriteReg
//  232     LPLD_LCD_WriteReg(0x08,0x0202);   //Display Control 2
        MOVW     R1,#+514
        MOVS     R0,#+8
        BL       LPLD_LCD_WriteReg
//  233     LPLD_LCD_WriteReg(0x09,0x0000);   //Display Contral 3.(0x0000)
        MOVS     R1,#+0
        MOVS     R0,#+9
        BL       LPLD_LCD_WriteReg
//  234     LPLD_LCD_WriteReg(0x0a,0x0000);//Frame Cycle Contal.(0x0000)
        MOVS     R1,#+0
        MOVS     R0,#+10
        BL       LPLD_LCD_WriteReg
//  235     LPLD_LCD_WriteReg(0x0c,0x0001);//Extern Display Interface Contral 1.(0x0000)
        MOVS     R1,#+1
        MOVS     R0,#+12
        BL       LPLD_LCD_WriteReg
//  236     LPLD_LCD_WriteReg(0x0d,0x0000);//Frame Maker Position.
        MOVS     R1,#+0
        MOVS     R0,#+13
        BL       LPLD_LCD_WriteReg
//  237     LPLD_LCD_WriteReg(0x0f,0x0000);//Extern Display Interface Contral 2.
        MOVS     R1,#+0
        MOVS     R0,#+15
        BL       LPLD_LCD_WriteReg
//  238     
//  239     LPLD_LCD_WriteReg(0x10,0x0000);//Power Control 1.(0x16b0)
        MOVS     R1,#+0
        MOVS     R0,#+16
        BL       LPLD_LCD_WriteReg
//  240     LPLD_LCD_WriteReg(0x11,0x0000);//Power Control 2.(0x0001)	
        MOVS     R1,#+0
        MOVS     R0,#+17
        BL       LPLD_LCD_WriteReg
//  241     LPLD_LCD_WriteReg(0x12,0x0000);//Power Control 3.(0x0138)
        MOVS     R1,#+0
        MOVS     R0,#+18
        BL       LPLD_LCD_WriteReg
//  242     LPLD_LCD_WriteReg(0x13,0x0000);
        MOVS     R1,#+0
        MOVS     R0,#+19
        BL       LPLD_LCD_WriteReg
//  243     //LPLD_LCD_Delayms(200);	
//  244     
//  245     LPLD_LCD_WriteReg(0x10,0x17b0);//Power Control 1.(0x16b0)
        MOVW     R1,#+6064
        MOVS     R0,#+16
        BL       LPLD_LCD_WriteReg
//  246     LPLD_LCD_WriteReg(0x11,0x0137);//Power Control 2.(0x0001)
        MOVW     R1,#+311
        MOVS     R0,#+17
        BL       LPLD_LCD_WriteReg
//  247     LPLD_LCD_Delayms(50);
        MOVS     R0,#+50
        BL       LPLD_LCD_Delayms
//  248     LPLD_LCD_WriteReg(0x12,0x0139);//Power Control 3.(0x0138)
        MOVW     R1,#+313
        MOVS     R0,#+18
        BL       LPLD_LCD_WriteReg
//  249     LPLD_LCD_Delayms(50);	
        MOVS     R0,#+50
        BL       LPLD_LCD_Delayms
//  250     LPLD_LCD_WriteReg(0x13,0x1700);	 
        MOV      R1,#+5888
        MOVS     R0,#+19
        BL       LPLD_LCD_WriteReg
//  251    
//  252     LPLD_LCD_WriteReg(0x29,0x0000);
        MOVS     R1,#+0
        MOVS     R0,#+41
        BL       LPLD_LCD_WriteReg
//  253     LPLD_LCD_WriteReg(0x2B,0x0000);
        MOVS     R1,#+0
        MOVS     R0,#+43
        BL       LPLD_LCD_WriteReg
//  254     LPLD_LCD_Delayms(50);						
        MOVS     R0,#+50
        BL       LPLD_LCD_Delayms
//  255     
//  256     LPLD_LCD_WriteReg(0x30,0x0000);					
        MOVS     R1,#+0
        MOVS     R0,#+48
        BL       LPLD_LCD_WriteReg
//  257     LPLD_LCD_WriteReg(0x31,0x0507);
        MOVW     R1,#+1287
        MOVS     R0,#+49
        BL       LPLD_LCD_WriteReg
//  258     LPLD_LCD_WriteReg(0x32,0x0104);	
        MOV      R1,#+260
        MOVS     R0,#+50
        BL       LPLD_LCD_WriteReg
//  259     LPLD_LCD_WriteReg(0x35,0x0105);	
        MOVW     R1,#+261
        MOVS     R0,#+53
        BL       LPLD_LCD_WriteReg
//  260     LPLD_LCD_WriteReg(0x36,0x0404);
        MOVW     R1,#+1028
        MOVS     R0,#+54
        BL       LPLD_LCD_WriteReg
//  261     LPLD_LCD_WriteReg(0x37,0x0603);	
        MOVW     R1,#+1539
        MOVS     R0,#+55
        BL       LPLD_LCD_WriteReg
//  262     LPLD_LCD_WriteReg(0x38,0x0004);	
        MOVS     R1,#+4
        MOVS     R0,#+56
        BL       LPLD_LCD_WriteReg
//  263     LPLD_LCD_WriteReg(0x39,0x0007);
        MOVS     R1,#+7
        MOVS     R0,#+57
        BL       LPLD_LCD_WriteReg
//  264     LPLD_LCD_WriteReg(0x3c,0x0501);	
        MOVW     R1,#+1281
        MOVS     R0,#+60
        BL       LPLD_LCD_WriteReg
//  265     LPLD_LCD_WriteReg(0x3d,0x0404);
        MOVW     R1,#+1028
        MOVS     R0,#+61
        BL       LPLD_LCD_WriteReg
//  266     
//  267     LPLD_LCD_WriteReg(0x0050,0x0000);
        MOVS     R1,#+0
        MOVS     R0,#+80
        BL       LPLD_LCD_WriteReg
//  268     LPLD_LCD_WriteReg(0x0051,239);
        MOVS     R1,#+239
        MOVS     R0,#+81
        BL       LPLD_LCD_WriteReg
//  269     LPLD_LCD_WriteReg(0x0052,0x0000);
        MOVS     R1,#+0
        MOVS     R0,#+82
        BL       LPLD_LCD_WriteReg
//  270     LPLD_LCD_WriteReg(0x0053,319);
        MOVW     R1,#+319
        MOVS     R0,#+83
        BL       LPLD_LCD_WriteReg
//  271   
//  272     LPLD_LCD_WriteReg(0x60,0x2700);//Driver Output Control.
        MOV      R1,#+9984
        MOVS     R0,#+96
        BL       LPLD_LCD_WriteReg
//  273     LPLD_LCD_WriteReg(0x61,0x0001);//Driver Output Control.
        MOVS     R1,#+1
        MOVS     R0,#+97
        BL       LPLD_LCD_WriteReg
//  274     LPLD_LCD_WriteReg(0x6a,0x0000);//Vertical Srcoll Control.
        MOVS     R1,#+0
        MOVS     R0,#+106
        BL       LPLD_LCD_WriteReg
//  275     
//  276     LPLD_LCD_WriteReg(0x80,0x0000);//Display Position? Partial Display 1.
        MOVS     R1,#+0
        MOVS     R0,#+128
        BL       LPLD_LCD_WriteReg
//  277     LPLD_LCD_WriteReg(0x81,0x0000);//RAM Address Start? Partial Display 1.
        MOVS     R1,#+0
        MOVS     R0,#+129
        BL       LPLD_LCD_WriteReg
//  278     LPLD_LCD_WriteReg(0x82,0x0000);//RAM Address End-Partial Display 1.
        MOVS     R1,#+0
        MOVS     R0,#+130
        BL       LPLD_LCD_WriteReg
//  279     LPLD_LCD_WriteReg(0x83,0x0000);//Displsy Position? Partial Display 2.
        MOVS     R1,#+0
        MOVS     R0,#+131
        BL       LPLD_LCD_WriteReg
//  280     LPLD_LCD_WriteReg(0x84,0x0000);//RAM Address Start? Partial Display 2.
        MOVS     R1,#+0
        MOVS     R0,#+132
        BL       LPLD_LCD_WriteReg
//  281     LPLD_LCD_WriteReg(0x85,0x0000);//RAM Address End? Partial Display 2.
        MOVS     R1,#+0
        MOVS     R0,#+133
        BL       LPLD_LCD_WriteReg
//  282     
//  283     LPLD_LCD_WriteReg(0x90,0x0010);//Frame Cycle Contral.(0x0013)
        MOVS     R1,#+16
        MOVS     R0,#+144
        BL       LPLD_LCD_WriteReg
//  284     LPLD_LCD_WriteReg(0x92,0x0000);//Panel Interface Contral 2.(0x0000)
        MOVS     R1,#+0
        MOVS     R0,#+146
        BL       LPLD_LCD_WriteReg
//  285     LPLD_LCD_WriteReg(0x93,0x0003);//Panel Interface Contral 3.
        MOVS     R1,#+3
        MOVS     R0,#+147
        BL       LPLD_LCD_WriteReg
//  286     LPLD_LCD_WriteReg(0x95,0x0110);//Frame Cycle Contral.(0x0110)
        MOV      R1,#+272
        MOVS     R0,#+149
        BL       LPLD_LCD_WriteReg
//  287     LPLD_LCD_WriteReg(0x97,0x0000);//
        MOVS     R1,#+0
        MOVS     R0,#+151
        BL       LPLD_LCD_WriteReg
//  288     LPLD_LCD_WriteReg(0x98,0x0000);//Frame Cycle Contral.
        MOVS     R1,#+0
        MOVS     R0,#+152
        BL       LPLD_LCD_WriteReg
//  289 
//  290     LPLD_LCD_WriteReg(0x07,0x0133);
        MOVW     R1,#+307
        MOVS     R0,#+7
        BL       LPLD_LCD_WriteReg
//  291     LPLD_LCD_Delayms(300);
        MOV      R0,#+300
        BL       LPLD_LCD_Delayms
        B.N      ??LPLD_LCD_Init_1
//  292   }  
//  293   else if(dID == 0x8989)
??LPLD_LCD_Init_0:
        UXTH     R4,R4            ;; ZeroExt  R4,R4,#+16,#+16
        MOVW     R0,#+35209
        CMP      R4,R0
        BNE.W    ??LPLD_LCD_Init_1
//  294   {
//  295     LPLD_LCD_INFO.Write_GRAM = 0x0022;
        MOVS     R0,#+34
        LDR.W    R1,??DataTable19_2
        STRH     R0,[R1, #+2]
//  296     LPLD_LCD_INFO.X_GRAM = 0x004e;
        MOVS     R0,#+78
        LDR.W    R1,??DataTable19_2
        STRH     R0,[R1, #+4]
//  297     LPLD_LCD_INFO.Y_GRAM = 0x004f;
        MOVS     R0,#+79
        LDR.W    R1,??DataTable19_2
        STRH     R0,[R1, #+6]
//  298     
//  299     //SSD1289;
//  300     /* 打开晶振 */
//  301     LPLD_LCD_WriteReg(0x0000,0x0001);    LPLD_LCD_Delayms(LCD_DELAY_TIME); 
        MOVS     R1,#+1
        MOVS     R0,#+0
        BL       LPLD_LCD_WriteReg
        MOVS     R0,#+2
        BL       LPLD_LCD_Delayms
//  302     //启动频率设置为最大osc/16 消耗功率设置在large档位，提高显示画质
//  303     //LPLD_LCD_WriteReg(0x0003,0xF8F8);    LPLD_LCD_Delayms(LCD_DELAY_TIME);
//  304     LPLD_LCD_WriteReg(0x0003,0xA8A4);    LPLD_LCD_Delayms(LCD_DELAY_TIME);   //0210
        MOVW     R1,#+43172
        MOVS     R0,#+3
        BL       LPLD_LCD_WriteReg
        MOVS     R0,#+2
        BL       LPLD_LCD_Delayms
//  305     LPLD_LCD_WriteReg(0x000C,0x0000);    LPLD_LCD_Delayms(LCD_DELAY_TIME);   
        MOVS     R1,#+0
        MOVS     R0,#+12
        BL       LPLD_LCD_WriteReg
        MOVS     R0,#+2
        BL       LPLD_LCD_Delayms
//  306     LPLD_LCD_WriteReg(0x000D,0x080C);    LPLD_LCD_Delayms(LCD_DELAY_TIME);   
        MOVW     R1,#+2060
        MOVS     R0,#+13
        BL       LPLD_LCD_WriteReg
        MOVS     R0,#+2
        BL       LPLD_LCD_Delayms
//  307     LPLD_LCD_WriteReg(0x000E,0x2B00);    LPLD_LCD_Delayms(LCD_DELAY_TIME);   
        MOV      R1,#+11008
        MOVS     R0,#+14
        BL       LPLD_LCD_WriteReg
        MOVS     R0,#+2
        BL       LPLD_LCD_Delayms
//  308     LPLD_LCD_WriteReg(0x001E,0x00B0);    LPLD_LCD_Delayms(LCD_DELAY_TIME); 
        MOVS     R1,#+176
        MOVS     R0,#+30
        BL       LPLD_LCD_WriteReg
        MOVS     R0,#+2
        BL       LPLD_LCD_Delayms
//  309     //驱动输出控制320*240 0x2B3F 
//  310     LPLD_LCD_WriteReg(0x0001,0x2B3F);    LPLD_LCD_Delayms(LCD_DELAY_TIME); 
        MOVW     R1,#+11071
        MOVS     R0,#+1
        BL       LPLD_LCD_WriteReg
        MOVS     R0,#+2
        BL       LPLD_LCD_Delayms
//  311     //驱动输出控制320*240 0x233F 将原来的第11位BGR清零这样输出是RGB就不会红色与蓝色颠倒 
//  312     //LPLD_LCD_WriteReg(0x0001,0x233F);    LPLD_LCD_Delayms(LCD_DELAY_TIME);   
//  313     LPLD_LCD_WriteReg(0x0002,0x0600);    LPLD_LCD_Delayms(LCD_DELAY_TIME);
        MOV      R1,#+1536
        MOVS     R0,#+2
        BL       LPLD_LCD_WriteReg
        MOVS     R0,#+2
        BL       LPLD_LCD_Delayms
//  314     LPLD_LCD_WriteReg(0x0010,0x0000);    LPLD_LCD_Delayms(LCD_DELAY_TIME);
        MOVS     R1,#+0
        MOVS     R0,#+16
        BL       LPLD_LCD_WriteReg
        MOVS     R0,#+2
        BL       LPLD_LCD_Delayms
//  315     /* 定义数据格式 16位色 横屏 0x6070 */
//  316     // TY1（bit7） TY0 ID1 ID0 AM LG2 LG1 LG0
//  317     //   0          0   1   1   1  0   0   0
//  318     // type A  0 0
//  319     // type B  0 1
//  320     // type C  1 1
//  321     // AM   指针自动增加
//  322     // 65K颜色
//  323     // 寄存器 4f/4e 定义窗口大小
//  324     LPLD_LCD_WriteReg(0x0011,0x6028);    LPLD_LCD_Delayms(LCD_DELAY_TIME);   
        MOVW     R1,#+24616
        MOVS     R0,#+17
        BL       LPLD_LCD_WriteReg
        MOVS     R0,#+2
        BL       LPLD_LCD_Delayms
//  325     //LPLD_LCD_WriteReg(0x0011,0x6070);    LPLD_LCD_Delayms(LCD_DELAY_TIME);   
//  326     //
//  327     LPLD_LCD_WriteReg(0x0005,0x0000);    LPLD_LCD_Delayms(LCD_DELAY_TIME);
        MOVS     R1,#+0
        MOVS     R0,#+5
        BL       LPLD_LCD_WriteReg
        MOVS     R0,#+2
        BL       LPLD_LCD_Delayms
//  328     LPLD_LCD_WriteReg(0x0006,0x0000);    LPLD_LCD_Delayms(LCD_DELAY_TIME);
        MOVS     R1,#+0
        MOVS     R0,#+6
        BL       LPLD_LCD_WriteReg
        MOVS     R0,#+2
        BL       LPLD_LCD_Delayms
//  329     LPLD_LCD_WriteReg(0x0016,0xEF1C);    LPLD_LCD_Delayms(LCD_DELAY_TIME);
        MOVW     R1,#+61212
        MOVS     R0,#+22
        BL       LPLD_LCD_WriteReg
        MOVS     R0,#+2
        BL       LPLD_LCD_Delayms
//  330     LPLD_LCD_WriteReg(0x0017,0x0003);    LPLD_LCD_Delayms(LCD_DELAY_TIME);
        MOVS     R1,#+3
        MOVS     R0,#+23
        BL       LPLD_LCD_WriteReg
        MOVS     R0,#+2
        BL       LPLD_LCD_Delayms
//  331     //PT1 PT0 VLE2 VLE1 SPT 0  0 GON DTE CM 0 D1 D0
//  332     //  0   0        1   0  0  0  1   1  0  0  1  1
//  333     LPLD_LCD_WriteReg(0x0007,0x0233);    LPLD_LCD_Delayms(LCD_DELAY_TIME);
        MOVW     R1,#+563
        MOVS     R0,#+7
        BL       LPLD_LCD_WriteReg
        MOVS     R0,#+2
        BL       LPLD_LCD_Delayms
//  334     //LPLD_LCD_WriteReg(0x0007,0x0133);    LPLD_LCD_Delayms(LCD_DELAY_TIME);
//  335     //NO1 NO0 SDT1 SDT0 0 EQ2 EQ1 EQ0 DIV1 DIV0 SDIV SRTN RTN3 RTN2 RTN1 RTN0
//  336     //                                 1     1    0    0    0    0   0   0
//  337     //将DIV设置成2分频
//  338     //
//  339     //LPLD_LCD_WriteReg(0x000B,0x0020);    LPLD_LCD_Delayms(LCD_DELAY_TIME);
//  340     LPLD_LCD_WriteReg(0x000B,0x0020);    LPLD_LCD_Delayms(LCD_DELAY_TIME);
        MOVS     R1,#+32
        MOVS     R0,#+11
        BL       LPLD_LCD_WriteReg
        MOVS     R0,#+2
        BL       LPLD_LCD_Delayms
//  341     //配置扫描模式
//  342     LPLD_LCD_WriteReg(0x000F,0x0000);    LPLD_LCD_Delayms(LCD_DELAY_TIME);   
        MOVS     R1,#+0
        MOVS     R0,#+15
        BL       LPLD_LCD_WriteReg
        MOVS     R0,#+2
        BL       LPLD_LCD_Delayms
//  343     /* 扫描开始地址 */
//  344     //垂直控制
//  345     LPLD_LCD_WriteReg(0x0041,0x0000);    LPLD_LCD_Delayms(LCD_DELAY_TIME);
        MOVS     R1,#+0
        MOVS     R0,#+65
        BL       LPLD_LCD_WriteReg
        MOVS     R0,#+2
        BL       LPLD_LCD_Delayms
//  346     LPLD_LCD_WriteReg(0x0042,0x0000);    LPLD_LCD_Delayms(LCD_DELAY_TIME);
        MOVS     R1,#+0
        MOVS     R0,#+66
        BL       LPLD_LCD_WriteReg
        MOVS     R0,#+2
        BL       LPLD_LCD_Delayms
//  347     //水平RAMposition
//  348     LPLD_LCD_WriteReg(0x0048,0x0000);    LPLD_LCD_Delayms(LCD_DELAY_TIME);
        MOVS     R1,#+0
        MOVS     R0,#+72
        BL       LPLD_LCD_WriteReg
        MOVS     R0,#+2
        BL       LPLD_LCD_Delayms
//  349     LPLD_LCD_WriteReg(0x0049,0x013F);    LPLD_LCD_Delayms(LCD_DELAY_TIME);
        MOVW     R1,#+319
        MOVS     R0,#+73
        BL       LPLD_LCD_WriteReg
        MOVS     R0,#+2
        BL       LPLD_LCD_Delayms
//  350     
//  351     LPLD_LCD_WriteReg(0x004A,0x0000);    LPLD_LCD_Delayms(LCD_DELAY_TIME);
        MOVS     R1,#+0
        MOVS     R0,#+74
        BL       LPLD_LCD_WriteReg
        MOVS     R0,#+2
        BL       LPLD_LCD_Delayms
//  352     LPLD_LCD_WriteReg(0x004B,0x0000);    LPLD_LCD_Delayms(LCD_DELAY_TIME); 
        MOVS     R1,#+0
        MOVS     R0,#+75
        BL       LPLD_LCD_WriteReg
        MOVS     R0,#+2
        BL       LPLD_LCD_Delayms
//  353     
//  354     LPLD_LCD_WriteReg(0x0030,0x0707);    LPLD_LCD_Delayms(LCD_DELAY_TIME);
        MOVW     R1,#+1799
        MOVS     R0,#+48
        BL       LPLD_LCD_WriteReg
        MOVS     R0,#+2
        BL       LPLD_LCD_Delayms
//  355     LPLD_LCD_WriteReg(0x0031,0x0204);    LPLD_LCD_Delayms(LCD_DELAY_TIME);
        MOV      R1,#+516
        MOVS     R0,#+49
        BL       LPLD_LCD_WriteReg
        MOVS     R0,#+2
        BL       LPLD_LCD_Delayms
//  356     LPLD_LCD_WriteReg(0x0032,0x0204);    LPLD_LCD_Delayms(LCD_DELAY_TIME);
        MOV      R1,#+516
        MOVS     R0,#+50
        BL       LPLD_LCD_WriteReg
        MOVS     R0,#+2
        BL       LPLD_LCD_Delayms
//  357     LPLD_LCD_WriteReg(0x0033,0x0502);    LPLD_LCD_Delayms(LCD_DELAY_TIME);
        MOVW     R1,#+1282
        MOVS     R0,#+51
        BL       LPLD_LCD_WriteReg
        MOVS     R0,#+2
        BL       LPLD_LCD_Delayms
//  358     LPLD_LCD_WriteReg(0x0034,0x0507);    LPLD_LCD_Delayms(LCD_DELAY_TIME);
        MOVW     R1,#+1287
        MOVS     R0,#+52
        BL       LPLD_LCD_WriteReg
        MOVS     R0,#+2
        BL       LPLD_LCD_Delayms
//  359     LPLD_LCD_WriteReg(0x0035,0x0204);    LPLD_LCD_Delayms(LCD_DELAY_TIME);
        MOV      R1,#+516
        MOVS     R0,#+53
        BL       LPLD_LCD_WriteReg
        MOVS     R0,#+2
        BL       LPLD_LCD_Delayms
//  360     LPLD_LCD_WriteReg(0x0036,0x0204);    LPLD_LCD_Delayms(LCD_DELAY_TIME);
        MOV      R1,#+516
        MOVS     R0,#+54
        BL       LPLD_LCD_WriteReg
        MOVS     R0,#+2
        BL       LPLD_LCD_Delayms
//  361     LPLD_LCD_WriteReg(0x0037,0x0502);    LPLD_LCD_Delayms(LCD_DELAY_TIME);
        MOVW     R1,#+1282
        MOVS     R0,#+55
        BL       LPLD_LCD_WriteReg
        MOVS     R0,#+2
        BL       LPLD_LCD_Delayms
//  362     LPLD_LCD_WriteReg(0x003A,0x0302);    LPLD_LCD_Delayms(LCD_DELAY_TIME);
        MOVW     R1,#+770
        MOVS     R0,#+58
        BL       LPLD_LCD_WriteReg
        MOVS     R0,#+2
        BL       LPLD_LCD_Delayms
//  363     LPLD_LCD_WriteReg(0x003B,0x0302);    LPLD_LCD_Delayms(LCD_DELAY_TIME);
        MOVW     R1,#+770
        MOVS     R0,#+59
        BL       LPLD_LCD_WriteReg
        MOVS     R0,#+2
        BL       LPLD_LCD_Delayms
//  364     LPLD_LCD_WriteReg(0x0023,0x0000);    LPLD_LCD_Delayms(LCD_DELAY_TIME);
        MOVS     R1,#+0
        MOVS     R0,#+35
        BL       LPLD_LCD_WriteReg
        MOVS     R0,#+2
        BL       LPLD_LCD_Delayms
//  365     LPLD_LCD_WriteReg(0x0024,0x0000);    LPLD_LCD_Delayms(LCD_DELAY_TIME);
        MOVS     R1,#+0
        MOVS     R0,#+36
        BL       LPLD_LCD_WriteReg
        MOVS     R0,#+2
        BL       LPLD_LCD_Delayms
//  366     /*0000 390K  50 
//  367       0010 430K  55 
//  368       0101 470K  60 
//  369       1000 510K  65 
//  370       1010 548K  70 
//  371       1100 587K  75 
//  372       1110 626K  80 */
//  373     //LPLD_LCD_WriteReg(0x0025,0x8000);    LPLD_LCD_Delayms(LCD_DELAY_TIME);
//  374     LPLD_LCD_WriteReg(0x0025,0xe000);    LPLD_LCD_Delayms(LCD_DELAY_TIME);
        MOV      R1,#+57344
        MOVS     R0,#+37
        BL       LPLD_LCD_WriteReg
        MOVS     R0,#+2
        BL       LPLD_LCD_Delayms
//  375     //设定显示窗口       
//  376     //LPLD_LCD_UpdateData();	//更新写入的数据使之生效*/
//  377     LPLD_LCD_Delayms(20);         //等待LCD启动
        MOVS     R0,#+20
        BL       LPLD_LCD_Delayms
//  378   }
//  379   
//  380   return dID;
??LPLD_LCD_Init_1:
        MOVS     R0,R4
        UXTH     R0,R0            ;; ZeroExt  R0,R0,#+16,#+16
        POP      {R4,PC}          ;; return
//  381 }
//  382 
//  383 /*
//  384  * LPLD_LCD_FillBackground
//  385  * 填充LCD背景色
//  386  * 
//  387  * 参数:
//  388  *    Color--16位RGB颜色值
//  389  *
//  390  * 输出:
//  391  *    无
//  392  */

        SECTION `.text`:CODE:NOROOT(1)
        THUMB
//  393 void LPLD_LCD_FillBackground(uint16 Color)
//  394 {
LPLD_LCD_FillBackground:
        PUSH     {R3-R5,LR}
        MOVS     R4,R0
//  395   uint32_t index=0;
        MOVS     R5,#+0
//  396   LPLD_LCD_SetCursor(0,0); 
        MOVS     R1,#+0
        MOVS     R0,#+0
        BL       LPLD_LCD_SetCursor
//  397   LPLD_LCD_WriteIndex(LPLD_LCD_INFO.Write_GRAM);
        LDR.W    R0,??DataTable19_2
        LDRH     R0,[R0, #+2]
        BL       LPLD_LCD_WriteIndex
//  398   for( index = 0; index < MAX_X * MAX_Y; index++ )
        MOVS     R0,#+0
        MOVS     R5,R0
??LPLD_LCD_FillBackground_0:
        CMP      R5,#+76800
        BCS.N    ??LPLD_LCD_FillBackground_1
//  399   {
//  400     LPLD_LCD_WriteData(Color);
        MOVS     R0,R4
        UXTH     R0,R0            ;; ZeroExt  R0,R0,#+16,#+16
        BL       LPLD_LCD_WriteData
//  401   }
        ADDS     R5,R5,#+1
        B.N      ??LPLD_LCD_FillBackground_0
//  402 }
??LPLD_LCD_FillBackground_1:
        POP      {R0,R4,R5,PC}    ;; return
//  403 
//  404 /*
//  405  * LPLD_LCD_FillBackgroundGRAM
//  406  * 填充LCD背景色到LCD_GRAM
//  407  * 
//  408  * 参数:
//  409  *    *Color--16位RGB颜色值数组，长度为LCD_GRAM数组的长度
//  410  *
//  411  * 输出:
//  412  *    无
//  413  */

        SECTION `.text`:CODE:NOROOT(1)
        THUMB
//  414 void LPLD_LCD_FillBackgroundGRAM(uint16 *Color)
//  415 {
LPLD_LCD_FillBackgroundGRAM:
        PUSH     {R3-R5,LR}
        MOVS     R4,R0
//  416   uint32_t index=0;
        MOVS     R5,#+0
//  417   LPLD_LCD_SetCursor(0,0); 
        MOVS     R1,#+0
        MOVS     R0,#+0
        BL       LPLD_LCD_SetCursor
//  418   LPLD_LCD_WriteIndex(LPLD_LCD_INFO.Write_GRAM);
        LDR.W    R0,??DataTable19_2
        LDRH     R0,[R0, #+2]
        BL       LPLD_LCD_WriteIndex
//  419   for( index = 0; index < MAX_X * MAX_Y; index++ )
        MOVS     R0,#+0
        MOVS     R5,R0
??LPLD_LCD_FillBackgroundGRAM_0:
        CMP      R5,#+76800
        BCS.N    ??LPLD_LCD_FillBackgroundGRAM_1
//  420   {
//  421     LPLD_LCD_WriteData(Color[index]);
        LDRH     R0,[R4, R5, LSL #+1]
        BL       LPLD_LCD_WriteData
//  422   }
        ADDS     R5,R5,#+1
        B.N      ??LPLD_LCD_FillBackgroundGRAM_0
//  423 }
??LPLD_LCD_FillBackgroundGRAM_1:
        POP      {R0,R4,R5,PC}    ;; return
//  424 
//  425 /*
//  426  * LPLD_LCD_BGR2RGB
//  427  * BGR颜色转RGB颜色
//  428  * 
//  429  * 参数:
//  430  *    Color--16位BGR颜色值
//  431  *
//  432  * 输出:
//  433  *    16位RGB颜色值
//  434  */

        SECTION `.text`:CODE:NOROOT(1)
        THUMB
//  435 uint16 LPLD_LCD_BGR2RGB(uint16 Color)
//  436 {
LPLD_LCD_BGR2RGB:
        PUSH     {R4,R5}
        MOVS     R1,R0
//  437   uint16  r, g, b, rgb;
//  438   
//  439   b = ( Color>>0 )  & 0x1f;
        ANDS     R5,R1,#0x1F
        MOVS     R4,R5
//  440   g = ( Color>>5 )  & 0x3f;
        UBFX     R5,R1,#+5,#+6
        MOVS     R3,R5
//  441   r = ( Color>>11 ) & 0x1f;
        UXTH     R1,R1            ;; ZeroExt  R1,R1,#+16,#+16
        LSRS     R5,R1,#+11
        MOVS     R2,R5
//  442   
//  443   rgb =  (b<<11) + (g<<5) + (r<<0);
        LSLS     R5,R3,#+5
        ADDS     R5,R5,R4, LSL #+11
        ADDS     R5,R2,R5
        MOVS     R0,R5
//  444   
//  445   return( rgb );
        UXTH     R0,R0            ;; ZeroExt  R0,R0,#+16,#+16
        POP      {R4,R5}
        BX       LR               ;; return
//  446 }
//  447 
//  448 /*
//  449  * LPLD_LCD_U8GRAY2RGB
//  450  * U8灰度颜色转为RGB颜色
//  451  * 
//  452  * 参数:
//  453  *    Color--8位灰度颜色值
//  454  *
//  455  * 输出:
//  456  *    16位RGB颜色值
//  457  */

        SECTION `.text`:CODE:NOROOT(1)
        THUMB
//  458 uint16 LPLD_LCD_U8GRAY2RGB(uint8 Color)
//  459 {
LPLD_LCD_U8GRAY2RGB:
        PUSH     {R4,R5}
        MOVS     R1,R0
//  460   uint16  r, g, b, rgb;
//  461   
//  462   b = ( Color>>3 )  & 0x1f;
        UXTB     R1,R1            ;; ZeroExt  R1,R1,#+24,#+24
        LSRS     R5,R1,#+3
        UXTB     R5,R5            ;; ZeroExt  R5,R5,#+24,#+24
        MOVS     R4,R5
//  463   g = ( Color>>2 )  & 0x3f;
        UXTB     R1,R1            ;; ZeroExt  R1,R1,#+24,#+24
        LSRS     R5,R1,#+2
        UXTB     R5,R5            ;; ZeroExt  R5,R5,#+24,#+24
        MOVS     R3,R5
//  464   r = ( Color>>3 )  & 0x1f;
        UXTB     R1,R1            ;; ZeroExt  R1,R1,#+24,#+24
        LSRS     R5,R1,#+3
        UXTB     R5,R5            ;; ZeroExt  R5,R5,#+24,#+24
        MOVS     R2,R5
//  465   
//  466   rgb =  (b<<11) + (g<<5) + (r<<0);
        LSLS     R5,R3,#+5
        ADDS     R5,R5,R4, LSL #+11
        ADDS     R5,R2,R5
        MOVS     R0,R5
//  467   
//  468   return( rgb );
        UXTH     R0,R0            ;; ZeroExt  R0,R0,#+16,#+16
        POP      {R4,R5}
        BX       LR               ;; return
//  469 }
//  470 
//  471 /*
//  472  * LPLD_LCD_GetPoint
//  473  * 取得LCD某点的16位RGB值
//  474  * 
//  475  * 参数:
//  476  *    Xpos--X轴坐标
//  477  *    Ypos--Y轴坐标
//  478  *
//  479  * 输出:
//  480  *    16位RGB颜色值
//  481  */

        SECTION `.text`:CODE:NOROOT(1)
        THUMB
//  482 uint16 LPLD_LCD_GetPoint(uint16 Xpos,uint16 Ypos)
//  483 {
LPLD_LCD_GetPoint:
        PUSH     {R4-R6,LR}
        MOVS     R4,R0
        MOVS     R5,R1
//  484   uint16 dummy;
//  485   
//  486   LPLD_LCD_SetCursor(Xpos,Ypos);
        MOVS     R1,R5
        UXTH     R1,R1            ;; ZeroExt  R1,R1,#+16,#+16
        MOVS     R0,R4
        UXTH     R0,R0            ;; ZeroExt  R0,R0,#+16,#+16
        BL       LPLD_LCD_SetCursor
//  487   LPLD_LCD_WriteIndex(LPLD_LCD_INFO.Write_GRAM);  
        LDR.W    R0,??DataTable19_2
        LDRH     R0,[R0, #+2]
        BL       LPLD_LCD_WriteIndex
//  488  
//  489   dummy = LPLD_LCD_ReadData();   /* 空读一次 */
        BL       LPLD_LCD_ReadData
        MOVS     R6,R0
//  490   dummy = LPLD_LCD_ReadData(); 
        BL       LPLD_LCD_ReadData
        MOVS     R6,R0
//  491   return  dummy;	          
        MOVS     R0,R6
        UXTH     R0,R0            ;; ZeroExt  R0,R0,#+16,#+16
        POP      {R4-R6,PC}       ;; return
//  492 }
//  493 
//  494 /*
//  495  * LPLD_LCD_SetPoint
//  496  * 设置LCD某点的16位RGB值
//  497  * 
//  498  * 参数:
//  499  *    Xpos--X轴坐标
//  500  *    Ypos--Y轴坐标
//  501  *    Color--16位RGB颜色值
//  502  *
//  503  * 输出:
//  504  *    无
//  505  */

        SECTION `.text`:CODE:NOROOT(1)
        THUMB
//  506 void LPLD_LCD_SetPoint(uint16 Xpos,uint16 Ypos,uint16 Color)
//  507 {
LPLD_LCD_SetPoint:
        PUSH     {R4-R6,LR}
        MOVS     R4,R0
        MOVS     R5,R1
        MOVS     R6,R2
//  508   if( Xpos >= MAX_X || Ypos >= MAX_Y )
        UXTH     R4,R4            ;; ZeroExt  R4,R4,#+16,#+16
        CMP      R4,#+320
        BGE.N    ??LPLD_LCD_SetPoint_0
        UXTH     R5,R5            ;; ZeroExt  R5,R5,#+16,#+16
        CMP      R5,#+240
        BLT.N    ??LPLD_LCD_SetPoint_1
//  509   {
//  510     return;
??LPLD_LCD_SetPoint_0:
        B.N      ??LPLD_LCD_SetPoint_2
//  511   } 
//  512   LPLD_LCD_SetCursor(Xpos,Ypos);
??LPLD_LCD_SetPoint_1:
        MOVS     R1,R5
        UXTH     R1,R1            ;; ZeroExt  R1,R1,#+16,#+16
        MOVS     R0,R4
        UXTH     R0,R0            ;; ZeroExt  R0,R0,#+16,#+16
        BL       LPLD_LCD_SetCursor
//  513   LPLD_LCD_WriteReg(LPLD_LCD_INFO.Write_GRAM,Color);
        MOVS     R1,R6
        UXTH     R1,R1            ;; ZeroExt  R1,R1,#+16,#+16
        LDR.W    R0,??DataTable19_2
        LDRH     R0,[R0, #+2]
        BL       LPLD_LCD_WriteReg
//  514 }
??LPLD_LCD_SetPoint_2:
        POP      {R4-R6,PC}       ;; return
//  515 
//  516 /*
//  517  * LPLD_LCD_DrawLine
//  518  * 在指定坐标显示直线
//  519  * 
//  520  * 参数:
//  521  *    x0--X轴起始坐标
//  522  *    y0--Y轴起始坐标
//  523  *    x1--X轴结束坐标
//  524  *    y1--Y轴结束坐标
//  525  *    Color--16位RGB颜色值
//  526  *
//  527  * 输出:
//  528  *    无
//  529  */	 

        SECTION `.text`:CODE:NOROOT(1)
        THUMB
//  530 void LPLD_LCD_DrawLine( uint16 x0, uint16 y0, uint16 x1, uint16 y1 , uint16 color )
//  531 {
LPLD_LCD_DrawLine:
        PUSH     {R3-R11,LR}
        MOVS     R5,R0
        MOVS     R6,R1
        MOVS     R7,R2
        MOV      R8,R3
        LDR      R4,[SP, #+40]
//  532   short dx,dy;      /* 定义X Y轴上增加的变量值 */
//  533   short temp;       /* 起点 终点大小比较 交换数据时的中间变量 */
//  534   
//  535   if( x0 > x1 )     /* X轴上起点大于终点 交换数据 */
        UXTH     R7,R7            ;; ZeroExt  R7,R7,#+16,#+16
        UXTH     R5,R5            ;; ZeroExt  R5,R5,#+16,#+16
        CMP      R7,R5
        BCS.N    ??LPLD_LCD_DrawLine_0
//  536   {
//  537     temp = x1;
        MOV      R11,R7
//  538     x1 = x0;
        MOVS     R7,R5
//  539     x0 = temp;   
        MOV      R5,R11
//  540   }
//  541   if( y0 > y1 )     /* Y轴上起点大于终点 交换数据 */
??LPLD_LCD_DrawLine_0:
        UXTH     R8,R8            ;; ZeroExt  R8,R8,#+16,#+16
        UXTH     R6,R6            ;; ZeroExt  R6,R6,#+16,#+16
        CMP      R8,R6
        BCS.N    ??LPLD_LCD_DrawLine_1
//  542   {
//  543     temp = y1;
        MOV      R11,R8
//  544     y1 = y0;
        MOV      R8,R6
//  545     y0 = temp;   
        MOV      R6,R11
//  546   }
//  547   
//  548   dx = x1-x0;       /* X轴方向上的增量 */
??LPLD_LCD_DrawLine_1:
        SUBS     R0,R7,R5
        MOV      R9,R0
//  549   dy = y1-y0;       /* Y轴方向上的增量 */
        SUBS     R0,R8,R6
        MOV      R10,R0
//  550   
//  551   if( dx == 0 )     /* X轴上没有增量 画垂直线 */ 
        SXTH     R9,R9            ;; SignExt  R9,R9,#+16,#+16
        CMP      R9,#+0
        BNE.N    ??LPLD_LCD_DrawLine_2
//  552   {
//  553     do
//  554     { 
//  555       LPLD_LCD_SetPoint(x0, y0, color);   /* 逐点显示 描垂直线 */
??LPLD_LCD_DrawLine_3:
        MOVS     R2,R4
        UXTH     R2,R2            ;; ZeroExt  R2,R2,#+16,#+16
        MOVS     R1,R6
        UXTH     R1,R1            ;; ZeroExt  R1,R1,#+16,#+16
        MOVS     R0,R5
        UXTH     R0,R0            ;; ZeroExt  R0,R0,#+16,#+16
        BL       LPLD_LCD_SetPoint
//  556       y0++;
        ADDS     R6,R6,#+1
//  557     }
//  558     while( y1 >= y0 ); 
        UXTH     R8,R8            ;; ZeroExt  R8,R8,#+16,#+16
        UXTH     R6,R6            ;; ZeroExt  R6,R6,#+16,#+16
        CMP      R8,R6
        BCS.N    ??LPLD_LCD_DrawLine_3
//  559       return; 
        B.N      ??LPLD_LCD_DrawLine_4
//  560   }
//  561   if( dy == 0 )     /* Y轴上没有增量 画水平直线 */ 
??LPLD_LCD_DrawLine_2:
        SXTH     R10,R10          ;; SignExt  R10,R10,#+16,#+16
        CMP      R10,#+0
        BNE.N    ??LPLD_LCD_DrawLine_5
//  562   {
//  563     do
//  564     {
//  565       LPLD_LCD_SetPoint(x0, y0, color);   /* 逐点显示 描水平线 */
??LPLD_LCD_DrawLine_6:
        MOVS     R2,R4
        UXTH     R2,R2            ;; ZeroExt  R2,R2,#+16,#+16
        MOVS     R1,R6
        UXTH     R1,R1            ;; ZeroExt  R1,R1,#+16,#+16
        MOVS     R0,R5
        UXTH     R0,R0            ;; ZeroExt  R0,R0,#+16,#+16
        BL       LPLD_LCD_SetPoint
//  566       x0++;
        ADDS     R5,R5,#+1
//  567     }
//  568     while( x1 >= x0 ); 
        UXTH     R7,R7            ;; ZeroExt  R7,R7,#+16,#+16
        UXTH     R5,R5            ;; ZeroExt  R5,R5,#+16,#+16
        CMP      R7,R5
        BCS.N    ??LPLD_LCD_DrawLine_6
//  569       return;
        B.N      ??LPLD_LCD_DrawLine_4
//  570   }
//  571   /* 布兰森汉姆(Bresenham)算法画线 */
//  572   if( dx > dy )                         /* 靠近X轴 */
??LPLD_LCD_DrawLine_5:
        SXTH     R10,R10          ;; SignExt  R10,R10,#+16,#+16
        SXTH     R9,R9            ;; SignExt  R9,R9,#+16,#+16
        CMP      R10,R9
        BGE.N    ??LPLD_LCD_DrawLine_7
//  573   {
//  574     temp = 2 * dy - dx;               /* 计算下个点的位置 */         
        SXTH     R10,R10          ;; SignExt  R10,R10,#+16,#+16
        SXTH     R9,R9            ;; SignExt  R9,R9,#+16,#+16
        RSBS     R0,R9,R10, LSL #+1
        MOV      R11,R0
//  575     while( x0 != x1 )
??LPLD_LCD_DrawLine_8:
        UXTH     R5,R5            ;; ZeroExt  R5,R5,#+16,#+16
        UXTH     R7,R7            ;; ZeroExt  R7,R7,#+16,#+16
        CMP      R5,R7
        BEQ.N    ??LPLD_LCD_DrawLine_9
//  576     {
//  577       LPLD_LCD_SetPoint(x0,y0,color);    /* 画起点 */ 
        MOVS     R2,R4
        UXTH     R2,R2            ;; ZeroExt  R2,R2,#+16,#+16
        MOVS     R1,R6
        UXTH     R1,R1            ;; ZeroExt  R1,R1,#+16,#+16
        MOVS     R0,R5
        UXTH     R0,R0            ;; ZeroExt  R0,R0,#+16,#+16
        BL       LPLD_LCD_SetPoint
//  578       x0++;                         /* X轴上加1 */
        ADDS     R5,R5,#+1
//  579       if( temp > 0 )                /* 判断下下个点的位置 */
        SXTH     R11,R11          ;; SignExt  R11,R11,#+16,#+16
        CMP      R11,#+1
        BLT.N    ??LPLD_LCD_DrawLine_10
//  580       {
//  581         y0++;                     /* 为右上相邻点，即（x0+1,y0+1） */ 
        ADDS     R6,R6,#+1
//  582         temp += 2 * dy - 2 * dx; 
        SXTH     R10,R10          ;; SignExt  R10,R10,#+16,#+16
        LSLS     R0,R10,#+1
        SXTAH    R0,R0,R11
        SXTH     R9,R9            ;; SignExt  R9,R9,#+16,#+16
        SUBS     R11,R0,R9, LSL #+1
        B.N      ??LPLD_LCD_DrawLine_8
//  583       }
//  584       else         
//  585       {
//  586         temp += 2 * dy;           /* 判断下下个点的位置 */  
??LPLD_LCD_DrawLine_10:
        SXTH     R10,R10          ;; SignExt  R10,R10,#+16,#+16
        LSLS     R0,R10,#+1
        SXTAH    R11,R0,R11
        B.N      ??LPLD_LCD_DrawLine_8
//  587       }       
//  588     }
//  589     LPLD_LCD_SetPoint(x0,y0,color);
??LPLD_LCD_DrawLine_9:
        MOVS     R2,R4
        UXTH     R2,R2            ;; ZeroExt  R2,R2,#+16,#+16
        MOVS     R1,R6
        UXTH     R1,R1            ;; ZeroExt  R1,R1,#+16,#+16
        MOVS     R0,R5
        UXTH     R0,R0            ;; ZeroExt  R0,R0,#+16,#+16
        BL       LPLD_LCD_SetPoint
        B.N      ??LPLD_LCD_DrawLine_11
//  590     }  
//  591     else
//  592     {
//  593       temp = 2 * dx - dy;                      /* 靠近Y轴 */       
??LPLD_LCD_DrawLine_7:
        SXTH     R9,R9            ;; SignExt  R9,R9,#+16,#+16
        SXTH     R10,R10          ;; SignExt  R10,R10,#+16,#+16
        RSBS     R0,R10,R9, LSL #+1
        MOV      R11,R0
//  594       while( y0 != y1 )
??LPLD_LCD_DrawLine_12:
        UXTH     R6,R6            ;; ZeroExt  R6,R6,#+16,#+16
        UXTH     R8,R8            ;; ZeroExt  R8,R8,#+16,#+16
        CMP      R6,R8
        BEQ.N    ??LPLD_LCD_DrawLine_13
//  595       {
//  596         LPLD_LCD_SetPoint(x0,y0,color);     
        MOVS     R2,R4
        UXTH     R2,R2            ;; ZeroExt  R2,R2,#+16,#+16
        MOVS     R1,R6
        UXTH     R1,R1            ;; ZeroExt  R1,R1,#+16,#+16
        MOVS     R0,R5
        UXTH     R0,R0            ;; ZeroExt  R0,R0,#+16,#+16
        BL       LPLD_LCD_SetPoint
//  597         y0++;                 
        ADDS     R6,R6,#+1
//  598         if( temp > 0 )           
        SXTH     R11,R11          ;; SignExt  R11,R11,#+16,#+16
        CMP      R11,#+1
        BLT.N    ??LPLD_LCD_DrawLine_14
//  599         {
//  600           x0++;               
        ADDS     R5,R5,#+1
//  601           temp+=2*dy-2*dx; 
        SXTH     R10,R10          ;; SignExt  R10,R10,#+16,#+16
        LSLS     R0,R10,#+1
        SXTAH    R0,R0,R11
        SXTH     R9,R9            ;; SignExt  R9,R9,#+16,#+16
        SUBS     R11,R0,R9, LSL #+1
        B.N      ??LPLD_LCD_DrawLine_12
//  602         }
//  603         else
//  604         {
//  605           temp += 2 * dy;
??LPLD_LCD_DrawLine_14:
        SXTH     R10,R10          ;; SignExt  R10,R10,#+16,#+16
        LSLS     R0,R10,#+1
        SXTAH    R11,R0,R11
        B.N      ??LPLD_LCD_DrawLine_12
//  606         }
//  607      } 
//  608   LPLD_LCD_SetPoint(x0,y0,color);
??LPLD_LCD_DrawLine_13:
        MOVS     R2,R4
        UXTH     R2,R2            ;; ZeroExt  R2,R2,#+16,#+16
        MOVS     R1,R6
        UXTH     R1,R1            ;; ZeroExt  R1,R1,#+16,#+16
        MOVS     R0,R5
        UXTH     R0,R0            ;; ZeroExt  R0,R0,#+16,#+16
        BL       LPLD_LCD_SetPoint
//  609   }
//  610 } 
??LPLD_LCD_DrawLine_11:
??LPLD_LCD_DrawLine_4:
        POP      {R0,R4-R11,PC}   ;; return
//  611 
//  612 
//  613 /*
//  614  * LPLD_LCD_DrawSquare
//  615  * 在指定坐标显示正方形
//  616  * 
//  617  * 参数： 
//  618  *    x0--正方形的起始横坐标 
//  619  *    y0--正方形的起始纵坐标
//  620  *    side_length--正方形的边长
//  621  *    Line_color--正方形边的颜色
//  622  *    Fill_color--正方形整体填充的颜色
//  623  *
//  624  * 输出:
//  625  *    无
//  626  */

        SECTION `.text`:CODE:NOROOT(1)
        THUMB
//  627 void LPLD_LCD_DrawSquare(uint16 x0,uint16 y0,uint16 side_length,uint16 Line_color,uint16 Fill_color)
//  628 {
LPLD_LCD_DrawSquare:
        PUSH     {R4-R10,LR}
        SUB      SP,SP,#+8
        MOVS     R5,R0
        MOVS     R6,R1
        MOVS     R7,R2
        MOV      R8,R3
        LDR      R4,[SP, #+40]
//  629   uint16 i,j;
//  630   if(side_length > MAX_X || side_length > MAX_Y)
        UXTH     R7,R7            ;; ZeroExt  R7,R7,#+16,#+16
        CMP      R7,#+320
        BGT.N    ??LPLD_LCD_DrawSquare_0
        UXTH     R7,R7            ;; ZeroExt  R7,R7,#+16,#+16
        CMP      R7,#+241
        BLT.N    ??LPLD_LCD_DrawSquare_1
//  631     return;
??LPLD_LCD_DrawSquare_0:
        B.N      ??LPLD_LCD_DrawSquare_2
//  632   
//  633   if(x0+side_length > MAX_X)
??LPLD_LCD_DrawSquare_1:
        UXTH     R7,R7            ;; ZeroExt  R7,R7,#+16,#+16
        UXTAH    R0,R7,R5
        CMP      R0,#+320
        BGT.N    ??LPLD_LCD_DrawSquare_2
//  634     return;
//  635   else
//  636     LPLD_LCD_DrawLine(x0,y0,x0+side_length,y0,Line_color);
??LPLD_LCD_DrawSquare_3:
        UXTH     R8,R8            ;; ZeroExt  R8,R8,#+16,#+16
        STR      R8,[SP, #+0]
        MOVS     R3,R6
        UXTH     R3,R3            ;; ZeroExt  R3,R3,#+16,#+16
        ADDS     R2,R7,R5
        UXTH     R2,R2            ;; ZeroExt  R2,R2,#+16,#+16
        MOVS     R1,R6
        UXTH     R1,R1            ;; ZeroExt  R1,R1,#+16,#+16
        MOVS     R0,R5
        UXTH     R0,R0            ;; ZeroExt  R0,R0,#+16,#+16
        BL       LPLD_LCD_DrawLine
//  637   
//  638   if(y0+side_length > MAX_Y)
        UXTH     R7,R7            ;; ZeroExt  R7,R7,#+16,#+16
        UXTAH    R0,R7,R6
        CMP      R0,#+241
        BGE.N    ??LPLD_LCD_DrawSquare_2
//  639     return;
//  640   else
//  641     LPLD_LCD_DrawLine(x0,y0,x0,y0+side_length,Line_color);
??LPLD_LCD_DrawSquare_4:
        UXTH     R8,R8            ;; ZeroExt  R8,R8,#+16,#+16
        STR      R8,[SP, #+0]
        ADDS     R3,R7,R6
        UXTH     R3,R3            ;; ZeroExt  R3,R3,#+16,#+16
        MOVS     R2,R5
        UXTH     R2,R2            ;; ZeroExt  R2,R2,#+16,#+16
        MOVS     R1,R6
        UXTH     R1,R1            ;; ZeroExt  R1,R1,#+16,#+16
        MOVS     R0,R5
        UXTH     R0,R0            ;; ZeroExt  R0,R0,#+16,#+16
        BL       LPLD_LCD_DrawLine
//  642   
//  643   LPLD_LCD_DrawLine(x0+side_length,y0,x0+side_length,y0+side_length,Line_color);
        UXTH     R8,R8            ;; ZeroExt  R8,R8,#+16,#+16
        STR      R8,[SP, #+0]
        ADDS     R3,R7,R6
        UXTH     R3,R3            ;; ZeroExt  R3,R3,#+16,#+16
        ADDS     R2,R7,R5
        UXTH     R2,R2            ;; ZeroExt  R2,R2,#+16,#+16
        MOVS     R1,R6
        UXTH     R1,R1            ;; ZeroExt  R1,R1,#+16,#+16
        ADDS     R0,R7,R5
        UXTH     R0,R0            ;; ZeroExt  R0,R0,#+16,#+16
        BL       LPLD_LCD_DrawLine
//  644   LPLD_LCD_DrawLine(x0,y0+side_length,x0+side_length,y0+side_length,Line_color);
        UXTH     R8,R8            ;; ZeroExt  R8,R8,#+16,#+16
        STR      R8,[SP, #+0]
        ADDS     R3,R7,R6
        UXTH     R3,R3            ;; ZeroExt  R3,R3,#+16,#+16
        ADDS     R2,R7,R5
        UXTH     R2,R2            ;; ZeroExt  R2,R2,#+16,#+16
        ADDS     R1,R7,R6
        UXTH     R1,R1            ;; ZeroExt  R1,R1,#+16,#+16
        MOVS     R0,R5
        UXTH     R0,R0            ;; ZeroExt  R0,R0,#+16,#+16
        BL       LPLD_LCD_DrawLine
//  645   
//  646   for(i=0;i<side_length-1;i++)
        MOVS     R0,#+0
        MOV      R9,R0
??LPLD_LCD_DrawSquare_5:
        UXTH     R9,R9            ;; ZeroExt  R9,R9,#+16,#+16
        UXTH     R7,R7            ;; ZeroExt  R7,R7,#+16,#+16
        SUBS     R0,R7,#+1
        CMP      R9,R0
        BGE.N    ??LPLD_LCD_DrawSquare_6
//  647   {
//  648     for(j=0;j<side_length-1;j++)
        MOVS     R0,#+0
        MOV      R10,R0
??LPLD_LCD_DrawSquare_7:
        UXTH     R10,R10          ;; ZeroExt  R10,R10,#+16,#+16
        UXTH     R7,R7            ;; ZeroExt  R7,R7,#+16,#+16
        SUBS     R0,R7,#+1
        CMP      R10,R0
        BGE.N    ??LPLD_LCD_DrawSquare_8
//  649     {
//  650       LPLD_LCD_SetPoint(x0+1+i,y0+1+j,Fill_color);
        MOVS     R2,R4
        UXTH     R2,R2            ;; ZeroExt  R2,R2,#+16,#+16
        ADDS     R0,R10,R6
        ADDS     R1,R0,#+1
        UXTH     R1,R1            ;; ZeroExt  R1,R1,#+16,#+16
        ADDS     R0,R9,R5
        ADDS     R0,R0,#+1
        UXTH     R0,R0            ;; ZeroExt  R0,R0,#+16,#+16
        BL       LPLD_LCD_SetPoint
//  651     }
        ADDS     R10,R10,#+1
        B.N      ??LPLD_LCD_DrawSquare_7
//  652   }
??LPLD_LCD_DrawSquare_8:
        ADDS     R9,R9,#+1
        B.N      ??LPLD_LCD_DrawSquare_5
//  653 }
??LPLD_LCD_DrawSquare_6:
??LPLD_LCD_DrawSquare_2:
        POP      {R0,R1,R4-R10,PC}  ;; return
//  654 
//  655 /*
//  656  * LPLD_LCD_DrawRectangle
//  657  * 在指定坐标显示矩形
//  658  * 
//  659  * 参数： 
//  660  *    x0--长方形的起始横坐标 
//  661  *    y0--长方形的起始纵坐标
//  662  *    side_xlength--长
//  663  *    side_ylength--宽
//  664  *    Line_color--长方形边的颜色
//  665  *    Fill_color--长方形整体填充的颜色
//  666  *
//  667  * 输出:
//  668  *    无
//  669  */

        SECTION `.text`:CODE:NOROOT(1)
        THUMB
//  670 void LPLD_LCD_DrawRectangle(uint16 x0,uint16 y0,uint16 side_xlength,uint16 side_ylength,uint16 Line_color,uint16 Fill_color)
//  671 {
LPLD_LCD_DrawRectangle:
        PUSH     {R3-R11,LR}
        MOVS     R6,R0
        MOVS     R7,R1
        MOV      R8,R2
        MOV      R9,R3
        LDR      R4,[SP, #+40]
        LDR      R5,[SP, #+44]
//  672   uint16 i,j;
//  673   if(side_xlength > MAX_X || side_ylength > MAX_Y)
        UXTH     R8,R8            ;; ZeroExt  R8,R8,#+16,#+16
        CMP      R8,#+320
        BGT.N    ??LPLD_LCD_DrawRectangle_0
        UXTH     R9,R9            ;; ZeroExt  R9,R9,#+16,#+16
        CMP      R9,#+241
        BLT.N    ??LPLD_LCD_DrawRectangle_1
//  674     return;
??LPLD_LCD_DrawRectangle_0:
        B.N      ??LPLD_LCD_DrawRectangle_2
//  675   
//  676   if(x0+side_xlength > MAX_X)
??LPLD_LCD_DrawRectangle_1:
        UXTH     R8,R8            ;; ZeroExt  R8,R8,#+16,#+16
        UXTAH    R0,R8,R6
        CMP      R0,#+320
        BGT.N    ??LPLD_LCD_DrawRectangle_2
//  677     return;
//  678   else
//  679     LPLD_LCD_DrawLine(x0,y0,x0+side_xlength,y0,Line_color);
??LPLD_LCD_DrawRectangle_3:
        UXTH     R4,R4            ;; ZeroExt  R4,R4,#+16,#+16
        STR      R4,[SP, #+0]
        MOVS     R3,R7
        UXTH     R3,R3            ;; ZeroExt  R3,R3,#+16,#+16
        ADDS     R2,R8,R6
        UXTH     R2,R2            ;; ZeroExt  R2,R2,#+16,#+16
        MOVS     R1,R7
        UXTH     R1,R1            ;; ZeroExt  R1,R1,#+16,#+16
        MOVS     R0,R6
        UXTH     R0,R0            ;; ZeroExt  R0,R0,#+16,#+16
        BL       LPLD_LCD_DrawLine
//  680   
//  681   if(y0+side_ylength > MAX_Y)
        UXTH     R9,R9            ;; ZeroExt  R9,R9,#+16,#+16
        UXTAH    R0,R9,R7
        CMP      R0,#+241
        BGE.N    ??LPLD_LCD_DrawRectangle_2
//  682     return;
//  683   else
//  684     LPLD_LCD_DrawLine(x0,y0,x0,y0+side_ylength,Line_color);
??LPLD_LCD_DrawRectangle_4:
        UXTH     R4,R4            ;; ZeroExt  R4,R4,#+16,#+16
        STR      R4,[SP, #+0]
        ADDS     R3,R9,R7
        UXTH     R3,R3            ;; ZeroExt  R3,R3,#+16,#+16
        MOVS     R2,R6
        UXTH     R2,R2            ;; ZeroExt  R2,R2,#+16,#+16
        MOVS     R1,R7
        UXTH     R1,R1            ;; ZeroExt  R1,R1,#+16,#+16
        MOVS     R0,R6
        UXTH     R0,R0            ;; ZeroExt  R0,R0,#+16,#+16
        BL       LPLD_LCD_DrawLine
//  685   
//  686   LPLD_LCD_DrawLine(x0+side_xlength,y0,x0+side_xlength,y0+side_ylength,Line_color);
        UXTH     R4,R4            ;; ZeroExt  R4,R4,#+16,#+16
        STR      R4,[SP, #+0]
        ADDS     R3,R9,R7
        UXTH     R3,R3            ;; ZeroExt  R3,R3,#+16,#+16
        ADDS     R2,R8,R6
        UXTH     R2,R2            ;; ZeroExt  R2,R2,#+16,#+16
        MOVS     R1,R7
        UXTH     R1,R1            ;; ZeroExt  R1,R1,#+16,#+16
        ADDS     R0,R8,R6
        UXTH     R0,R0            ;; ZeroExt  R0,R0,#+16,#+16
        BL       LPLD_LCD_DrawLine
//  687   LPLD_LCD_DrawLine(x0,y0+side_ylength,x0+side_xlength,y0+side_ylength,Line_color);
        UXTH     R4,R4            ;; ZeroExt  R4,R4,#+16,#+16
        STR      R4,[SP, #+0]
        ADDS     R3,R9,R7
        UXTH     R3,R3            ;; ZeroExt  R3,R3,#+16,#+16
        ADDS     R2,R8,R6
        UXTH     R2,R2            ;; ZeroExt  R2,R2,#+16,#+16
        ADDS     R1,R9,R7
        UXTH     R1,R1            ;; ZeroExt  R1,R1,#+16,#+16
        MOVS     R0,R6
        UXTH     R0,R0            ;; ZeroExt  R0,R0,#+16,#+16
        BL       LPLD_LCD_DrawLine
//  688   
//  689   for(i=0;i<side_xlength-1;i++)
        MOVS     R0,#+0
        MOV      R10,R0
??LPLD_LCD_DrawRectangle_5:
        UXTH     R10,R10          ;; ZeroExt  R10,R10,#+16,#+16
        UXTH     R8,R8            ;; ZeroExt  R8,R8,#+16,#+16
        SUBS     R0,R8,#+1
        CMP      R10,R0
        BGE.N    ??LPLD_LCD_DrawRectangle_6
//  690   {
//  691     for(j=0;j<side_ylength-1;j++)
        MOVS     R0,#+0
        MOV      R11,R0
??LPLD_LCD_DrawRectangle_7:
        UXTH     R11,R11          ;; ZeroExt  R11,R11,#+16,#+16
        UXTH     R9,R9            ;; ZeroExt  R9,R9,#+16,#+16
        SUBS     R0,R9,#+1
        CMP      R11,R0
        BGE.N    ??LPLD_LCD_DrawRectangle_8
//  692     {
//  693       LPLD_LCD_SetPoint(x0+1+i,y0+1+j,Fill_color);
        MOVS     R2,R5
        UXTH     R2,R2            ;; ZeroExt  R2,R2,#+16,#+16
        ADDS     R0,R11,R7
        ADDS     R1,R0,#+1
        UXTH     R1,R1            ;; ZeroExt  R1,R1,#+16,#+16
        ADDS     R0,R10,R6
        ADDS     R0,R0,#+1
        UXTH     R0,R0            ;; ZeroExt  R0,R0,#+16,#+16
        BL       LPLD_LCD_SetPoint
//  694     }
        ADDS     R11,R11,#+1
        B.N      ??LPLD_LCD_DrawRectangle_7
//  695   }
??LPLD_LCD_DrawRectangle_8:
        ADDS     R10,R10,#+1
        B.N      ??LPLD_LCD_DrawRectangle_5
//  696 }
??LPLD_LCD_DrawRectangle_6:
??LPLD_LCD_DrawRectangle_2:
        POP      {R0,R4-R11,PC}   ;; return
//  697 
//  698 /*
//  699  * LPLD_LCD_GRAMFillRec
//  700  * 填充指定颜色的矩形到LCD_GRAM
//  701  * 
//  702  * 参数： 
//  703  *    x0--X轴起始坐标
//  704  *    y0--Y轴起始坐标
//  705  *    x1--X轴结束坐标
//  706  *    y1--Y轴结束坐标
//  707  *    Color--16位RGB颜色值
//  708  *
//  709  * 输出:
//  710  *    无
//  711  */

        SECTION `.text`:CODE:NOROOT(1)
        THUMB
//  712 void LPLD_LCD_GRAMFillRec(uint16 x0,uint16 y0,uint16 x1,uint16 y1,uint16 Color)
//  713 {          
LPLD_LCD_GRAMFillRec:
        PUSH     {R4-R7,LR}
        LDR      R4,[SP, #+20]
//  714   uint16 i,j;   
//  715   for(i=y0;i<=y1;i++)
        MOVS     R5,R1
??LPLD_LCD_GRAMFillRec_0:
        UXTH     R3,R3            ;; ZeroExt  R3,R3,#+16,#+16
        UXTH     R5,R5            ;; ZeroExt  R5,R5,#+16,#+16
        CMP      R3,R5
        BCC.N    ??LPLD_LCD_GRAMFillRec_1
//  716   {
//  717     for(j=x0; j<x1; j++)
        MOVS     R6,R0
??LPLD_LCD_GRAMFillRec_2:
        UXTH     R6,R6            ;; ZeroExt  R6,R6,#+16,#+16
        UXTH     R2,R2            ;; ZeroExt  R2,R2,#+16,#+16
        CMP      R6,R2
        BCS.N    ??LPLD_LCD_GRAMFillRec_3
//  718     {
//  719       LCD_GRAM[MAX_X*MAX_Y - (j-1)*MAX_Y - (i)] = Color;
        LDR.N    R7,??DataTable19_4
        LDR      R7,[R7, #+0]
        UXTH     R6,R6            ;; ZeroExt  R6,R6,#+16,#+16
        SUBS     R12,R6,#+1
        MOVS     LR,#+240
        MUL      R12,LR,R12
        RSBS     R12,R12,#+76800
        UXTH     R5,R5            ;; ZeroExt  R5,R5,#+16,#+16
        SUBS     R12,R12,R5
        STRH     R4,[R7, R12, LSL #+1]
//  720     }    
        ADDS     R6,R6,#+1
        B.N      ??LPLD_LCD_GRAMFillRec_2
//  721   }
??LPLD_LCD_GRAMFillRec_3:
        ADDS     R5,R5,#+1
        B.N      ??LPLD_LCD_GRAMFillRec_0
//  722 } 
??LPLD_LCD_GRAMFillRec_1:
        POP      {R4-R7,PC}       ;; return
//  723 
//  724 /*
//  725  * LPLD_LCD_GRAMDrawHLine
//  726  * 填充指定颜色的横线到LCD_GRAM
//  727  * 
//  728  * 参数： 
//  729  *    x0--X轴起始坐标
//  730  *    y0--Y轴起始坐标
//  731  *    len--横线长度
//  732  *    Color--16位RGB颜色值
//  733  *
//  734  * 输出:
//  735  *    无
//  736  */

        SECTION `.text`:CODE:NOROOT(1)
        THUMB
//  737 void LPLD_LCD_GRAMDrawHLine(uint16 x0,uint16 y0,uint16 len,uint16 Color)
//  738 {
LPLD_LCD_GRAMDrawHLine:
        PUSH     {R4-R7}
//  739   uint16 i;
//  740   for(i=0; i<len; i++)
        MOVS     R5,#+0
        MOVS     R4,R5
??LPLD_LCD_GRAMDrawHLine_0:
        UXTH     R4,R4            ;; ZeroExt  R4,R4,#+16,#+16
        UXTH     R2,R2            ;; ZeroExt  R2,R2,#+16,#+16
        CMP      R4,R2
        BCS.N    ??LPLD_LCD_GRAMDrawHLine_1
//  741   {
//  742     LCD_GRAM[MAX_X*MAX_Y - (x0+i-1)*MAX_Y - (y0)] = Color;
        LDR.N    R5,??DataTable19_4
        LDR      R5,[R5, #+0]
        UXTH     R4,R4            ;; ZeroExt  R4,R4,#+16,#+16
        UXTAH    R6,R4,R0
        SUBS     R6,R6,#+1
        MOVS     R7,#+240
        MULS     R6,R7,R6
        RSBS     R6,R6,#+76800
        UXTH     R1,R1            ;; ZeroExt  R1,R1,#+16,#+16
        SUBS     R6,R6,R1
        STRH     R3,[R5, R6, LSL #+1]
//  743   }
        ADDS     R4,R4,#+1
        B.N      ??LPLD_LCD_GRAMDrawHLine_0
//  744 }
??LPLD_LCD_GRAMDrawHLine_1:
        POP      {R4-R7}
        BX       LR               ;; return
//  745 
//  746 /*
//  747  * LPLD_LCD_GRAMDrawHLine
//  748  * 显示一幅指定大小的U8灰度图像
//  749  * 
//  750  * 参数： 
//  751  *    *Color--8位灰度图像数组
//  752  *    w--图像宽
//  753  *    h--图像高
//  754  *
//  755  * 输出:
//  756  *    无
//  757  */

        SECTION `.text`:CODE:NOROOT(1)
        THUMB
//  758 void LPLD_LCD_DrawU8Gray(uint8 *Color, uint16 w, uint16 h)
//  759 {
LPLD_LCD_DrawU8Gray:
        PUSH     {R4-R8,LR}
        MOVS     R4,R0
        MOVS     R5,R1
        MOVS     R6,R2
//  760   uint16 i=0, j=0;
        MOVS     R7,#+0
        MOVS     R8,#+0
//  761  
//  762   for(i=0; i<w; i++)
        MOVS     R0,#+0
        MOVS     R7,R0
??LPLD_LCD_DrawU8Gray_0:
        UXTH     R7,R7            ;; ZeroExt  R7,R7,#+16,#+16
        UXTH     R5,R5            ;; ZeroExt  R5,R5,#+16,#+16
        CMP      R7,R5
        BCS.N    ??LPLD_LCD_DrawU8Gray_1
//  763   {  
//  764     LPLD_LCD_SetCursor(w-i-1, 0); 
        MOVS     R1,#+0
        SUBS     R0,R5,R7
        SUBS     R0,R0,#+1
        UXTH     R0,R0            ;; ZeroExt  R0,R0,#+16,#+16
        BL       LPLD_LCD_SetCursor
//  765     LPLD_LCD_WriteIndex(LPLD_LCD_INFO.Write_GRAM);
        LDR.N    R0,??DataTable19_2
        LDRH     R0,[R0, #+2]
        BL       LPLD_LCD_WriteIndex
//  766     for(j=0; j<h; j++)
        MOVS     R0,#+0
        MOV      R8,R0
??LPLD_LCD_DrawU8Gray_2:
        UXTH     R8,R8            ;; ZeroExt  R8,R8,#+16,#+16
        UXTH     R6,R6            ;; ZeroExt  R6,R6,#+16,#+16
        CMP      R8,R6
        BCS.N    ??LPLD_LCD_DrawU8Gray_3
//  767     {
//  768       LPLD_LCD_WriteData(LPLD_LCD_U8GRAY2RGB(Color[j*w+i]));
        UXTH     R8,R8            ;; ZeroExt  R8,R8,#+16,#+16
        UXTH     R5,R5            ;; ZeroExt  R5,R5,#+16,#+16
        UXTH     R7,R7            ;; ZeroExt  R7,R7,#+16,#+16
        MLA      R0,R5,R8,R7
        LDRB     R0,[R0, R4]
        BL       LPLD_LCD_U8GRAY2RGB
        UXTH     R0,R0            ;; ZeroExt  R0,R0,#+16,#+16
        BL       LPLD_LCD_WriteData
//  769     }   
        ADDS     R8,R8,#+1
        B.N      ??LPLD_LCD_DrawU8Gray_2
//  770   }
??LPLD_LCD_DrawU8Gray_3:
        ADDS     R7,R7,#+1
        B.N      ??LPLD_LCD_DrawU8Gray_0
//  771 }
??LPLD_LCD_DrawU8Gray_1:
        POP      {R4-R8,PC}       ;; return
//  772 
//  773 /*
//  774  * LPLD_LCD_ShowChar
//  775  * 在指定坐标显示字符
//  776  * 
//  777  * 参数： 
//  778  *    Xpos--X轴坐标
//  779  *    Ypos--Y轴坐标
//  780  *    ASCI--ASCI码
//  781  *    charColor--字符字体颜色
//  782  *    bkColor--字符背景颜色
//  783  *
//  784  * 输出:
//  785  *    无
//  786  */

        SECTION `.text`:CODE:NOROOT(1)
        THUMB
//  787 void LPLD_LCD_ShowChar( uint16 Xpos, uint16 Ypos, uint8 ASCI, uint16 charColor, uint16 bkColor )
//  788 {
LPLD_LCD_ShowChar:
        PUSH     {R3-R11,LR}
        MOVS     R5,R0
        MOVS     R6,R1
        MOVS     R7,R2
        MOV      R8,R3
        LDR      R4,[SP, #+40]
//  789   uint16 i, j;
//  790   uint8 tmp_char;
//  791   for( i=0; i<16; i++ )
        MOVS     R0,#+0
        MOV      R9,R0
??LPLD_LCD_ShowChar_0:
        UXTH     R9,R9            ;; ZeroExt  R9,R9,#+16,#+16
        CMP      R9,#+16
        BGE.N    ??LPLD_LCD_ShowChar_1
//  792   {
//  793     tmp_char = asc2_1608[ASCI-32][i];
        LDR.N    R0,??DataTable19_5
        UXTB     R7,R7            ;; ZeroExt  R7,R7,#+24,#+24
        ADDS     R0,R0,R7, LSL #+4
        UXTH     R9,R9            ;; ZeroExt  R9,R9,#+16,#+16
        ADDS     R0,R9,R0
        SUBS     R0,R0,#+512
        LDRB     R0,[R0, #+0]
        MOV      R11,R0
//  794     for( j=0; j<8; j++ )
        MOVS     R0,#+0
        MOV      R10,R0
??LPLD_LCD_ShowChar_2:
        UXTH     R10,R10          ;; ZeroExt  R10,R10,#+16,#+16
        CMP      R10,#+8
        BGE.N    ??LPLD_LCD_ShowChar_3
//  795     {
//  796       if( (tmp_char >> j) & 0x01 == 0x01 )
        UXTB     R11,R11          ;; ZeroExt  R11,R11,#+24,#+24
        ASRS     R0,R11,R10
        LSLS     R0,R0,#+31
        BPL.N    ??LPLD_LCD_ShowChar_4
//  797       {
//  798         LPLD_LCD_SetPoint( Xpos + j, Ypos + i, charColor );  /* 字符颜色 */
        MOV      R2,R8
        UXTH     R2,R2            ;; ZeroExt  R2,R2,#+16,#+16
        ADDS     R1,R9,R6
        UXTH     R1,R1            ;; ZeroExt  R1,R1,#+16,#+16
        ADDS     R0,R10,R5
        UXTH     R0,R0            ;; ZeroExt  R0,R0,#+16,#+16
        BL       LPLD_LCD_SetPoint
        B.N      ??LPLD_LCD_ShowChar_5
//  799       }
//  800       else
//  801       {
//  802         LPLD_LCD_SetPoint( Xpos + j, Ypos + i, bkColor );  /* 背景颜色 */
??LPLD_LCD_ShowChar_4:
        MOVS     R2,R4
        UXTH     R2,R2            ;; ZeroExt  R2,R2,#+16,#+16
        ADDS     R1,R9,R6
        UXTH     R1,R1            ;; ZeroExt  R1,R1,#+16,#+16
        ADDS     R0,R10,R5
        UXTH     R0,R0            ;; ZeroExt  R0,R0,#+16,#+16
        BL       LPLD_LCD_SetPoint
//  803       }
//  804     }
??LPLD_LCD_ShowChar_5:
        ADDS     R10,R10,#+1
        B.N      ??LPLD_LCD_ShowChar_2
//  805   }
??LPLD_LCD_ShowChar_3:
        ADDS     R9,R9,#+1
        B.N      ??LPLD_LCD_ShowChar_0
//  806 }
??LPLD_LCD_ShowChar_1:
        POP      {R0,R4-R11,PC}   ;; return
//  807 

        SECTION `.text`:CODE:NOROOT(1)
        THUMB
//  808 uint32 mypow(uint8 m,uint8 n)
//  809 {
mypow:
        MOVS     R2,R0
//  810 	uint32 result=1;	 
        MOVS     R0,#+1
//  811 	while(n--)result*=m;    
??mypow_0:
        MOVS     R3,R1
        SUBS     R1,R3,#+1
        UXTB     R3,R3            ;; ZeroExt  R3,R3,#+24,#+24
        CMP      R3,#+0
        BEQ.N    ??mypow_1
        UXTB     R2,R2            ;; ZeroExt  R2,R2,#+24,#+24
        MULS     R0,R2,R0
        B.N      ??mypow_0
//  812 	return result;
??mypow_1:
        BX       LR               ;; return
//  813 }
//  814 
//  815 /*
//  816  * LPLD_LCD_ShowNum
//  817  * 在指定坐标显示数字
//  818  * 
//  819  * 参数： 
//  820  *    Xpos--X轴坐标
//  821  *    Ypos--Y轴坐标
//  822  *    num--数字
//  823  *    len--数字长度
//  824  *    charColor--字符字体颜色
//  825  *    bkColor--字符背景颜色
//  826  *
//  827  * 输出:
//  828  *    无
//  829  */

        SECTION `.text`:CODE:NOROOT(1)
        THUMB
//  830 void LPLD_LCD_ShowNum(uint16 Xpos, uint16 Ypos, uint16 num, uint8 len, uint16 charColor, uint16 bkColor )
//  831 {         	
LPLD_LCD_ShowNum:
        PUSH     {R3-R11,LR}
        MOVS     R6,R0
        MOVS     R7,R1
        MOV      R8,R2
        MOV      R9,R3
        LDR      R4,[SP, #+40]
        LDR      R5,[SP, #+44]
//  832   uint8 t,temp;						   
//  833   for(t=0;t<len;t++)
        MOVS     R0,#+0
        MOV      R10,R0
??LPLD_LCD_ShowNum_0:
        UXTB     R10,R10          ;; ZeroExt  R10,R10,#+24,#+24
        UXTB     R9,R9            ;; ZeroExt  R9,R9,#+24,#+24
        CMP      R10,R9
        BCS.N    ??LPLD_LCD_ShowNum_1
//  834   {
//  835     temp=(num/mypow(10,len-t-1))%10;
        SUBS     R0,R9,R10
        SUBS     R1,R0,#+1
        UXTB     R1,R1            ;; ZeroExt  R1,R1,#+24,#+24
        MOVS     R0,#+10
        BL       mypow
        UXTH     R8,R8            ;; ZeroExt  R8,R8,#+16,#+16
        UDIV     R0,R8,R0
        MOVS     R1,#+10
        UDIV     R2,R0,R1
        MLS      R0,R1,R2,R0
        MOV      R11,R0
//  836     LPLD_LCD_ShowChar(Xpos+(8)*t,Ypos,temp+'0',charColor,bkColor); 
        UXTH     R5,R5            ;; ZeroExt  R5,R5,#+16,#+16
        STR      R5,[SP, #+0]
        MOVS     R3,R4
        UXTH     R3,R3            ;; ZeroExt  R3,R3,#+16,#+16
        ADDS     R2,R11,#+48
        UXTB     R2,R2            ;; ZeroExt  R2,R2,#+24,#+24
        MOVS     R1,R7
        UXTH     R1,R1            ;; ZeroExt  R1,R1,#+16,#+16
        UXTB     R10,R10          ;; ZeroExt  R10,R10,#+24,#+24
        LSLS     R0,R10,#+3
        UXTAH    R0,R0,R6
        UXTH     R0,R0            ;; ZeroExt  R0,R0,#+16,#+16
        BL       LPLD_LCD_ShowChar
//  837     CurX = CurX + 8;  
        LDR.N    R0,??DataTable19_6
        LDRH     R0,[R0, #+0]
        ADDS     R0,R0,#+8
        LDR.N    R1,??DataTable19_6
        STRH     R0,[R1, #+0]
//  838   }
        ADDS     R10,R10,#+1
        B.N      ??LPLD_LCD_ShowNum_0
//  839 } 
??LPLD_LCD_ShowNum_1:
        POP      {R0,R4-R11,PC}   ;; return
//  840 
//  841 /*
//  842  * LPLD_LCD_ShowString
//  843  * 在指定坐标显示字符串
//  844  * 
//  845  * 参数： 
//  846  *    Xpos--X轴坐标
//  847  *    Ypos--Y轴坐标
//  848  *    *str--字符串
//  849  *    strColor--字符串字体颜色
//  850  *    bkColor--字符背景颜色
//  851  *
//  852  * 输出:
//  853  *    无
//  854  */

        SECTION `.text`:CODE:NOROOT(1)
        THUMB
//  855 void LPLD_LCD_ShowString(uint16 Xpos, uint16 Ypos, uint8 *str,uint16 strColor, uint16 bkColor)
//  856 {
LPLD_LCD_ShowString:
        PUSH     {R3-R9,LR}
        MOV      R8,R0
        MOV      R9,R1
        MOVS     R7,R2
        MOVS     R5,R3
        LDR      R4,[SP, #+32]
//  857   uint8 TempChar;
//  858   do
//  859   {
//  860     TempChar = *str++;  
??LPLD_LCD_ShowString_0:
        LDRB     R0,[R7, #+0]
        MOVS     R6,R0
        ADDS     R7,R7,#+1
//  861     LPLD_LCD_ShowChar( Xpos, Ypos, TempChar, strColor, bkColor );    
        UXTH     R4,R4            ;; ZeroExt  R4,R4,#+16,#+16
        STR      R4,[SP, #+0]
        MOVS     R3,R5
        UXTH     R3,R3            ;; ZeroExt  R3,R3,#+16,#+16
        MOVS     R2,R6
        UXTB     R2,R2            ;; ZeroExt  R2,R2,#+24,#+24
        MOV      R1,R9
        UXTH     R1,R1            ;; ZeroExt  R1,R1,#+16,#+16
        MOV      R0,R8
        UXTH     R0,R0            ;; ZeroExt  R0,R0,#+16,#+16
        BL       LPLD_LCD_ShowChar
//  862     if( Xpos <= MAX_X - 8 )
        UXTH     R8,R8            ;; ZeroExt  R8,R8,#+16,#+16
        CMP      R8,#+312
        BGT.N    ??LPLD_LCD_ShowString_1
//  863     {
//  864       Xpos += 8;
        ADDS     R8,R8,#+8
        B.N      ??LPLD_LCD_ShowString_2
//  865     } 
//  866     else if ( Ypos <= MAX_Y - 16 )
??LPLD_LCD_ShowString_1:
        UXTH     R9,R9            ;; ZeroExt  R9,R9,#+16,#+16
        CMP      R9,#+225
        BGE.N    ??LPLD_LCD_ShowString_3
//  867     {
//  868       Xpos = 0;
        MOVS     R0,#+0
        MOV      R8,R0
//  869       Ypos += 16;
        ADDS     R9,R9,#+16
        B.N      ??LPLD_LCD_ShowString_2
//  870     }   
//  871     else
//  872     {
//  873       Xpos = 0;
??LPLD_LCD_ShowString_3:
        MOVS     R0,#+0
        MOV      R8,R0
//  874       Ypos = 0;
        MOVS     R0,#+0
        MOV      R9,R0
//  875     } 
//  876     CurX = CurX + 8;  
??LPLD_LCD_ShowString_2:
        LDR.N    R0,??DataTable19_6
        LDRH     R0,[R0, #+0]
        ADDS     R0,R0,#+8
        LDR.N    R1,??DataTable19_6
        STRH     R0,[R1, #+0]
//  877   }
//  878   while ( *str != 0 );
        LDRB     R0,[R7, #+0]
        CMP      R0,#+0
        BNE.N    ??LPLD_LCD_ShowString_0
//  879 }
        POP      {R0,R4-R9,PC}    ;; return
//  880 
//  881 /*
//  882  * LPLD_LCD_PrintStringLine
//  883  * 另起一行显示字符串
//  884  * 
//  885  * 参数： 
//  886  *    *str--字符串
//  887  *    strColor--字符串字体颜色
//  888  *    bkColor--字符背景颜色
//  889  *
//  890  * 输出:
//  891  *    无
//  892  */

        SECTION `.text`:CODE:NOROOT(1)
        THUMB
//  893 void LPLD_LCD_PrintStringLine(uint8 *str,uint16 strColor, uint16 bkColor)
//  894 {
LPLD_LCD_PrintStringLine:
        PUSH     {R4-R6,LR}
        SUB      SP,SP,#+8
        MOVS     R4,R0
        MOVS     R5,R1
        MOVS     R6,R2
//  895   CurX = 0;
        MOVS     R0,#+0
        LDR.N    R1,??DataTable19_6
        STRH     R0,[R1, #+0]
//  896   LPLD_LCD_ShowString(0, CurY*18, str, strColor, bkColor);
        UXTH     R6,R6            ;; ZeroExt  R6,R6,#+16,#+16
        STR      R6,[SP, #+0]
        MOVS     R3,R5
        UXTH     R3,R3            ;; ZeroExt  R3,R3,#+16,#+16
        MOVS     R2,R4
        LDR.N    R0,??DataTable19_7
        LDRH     R0,[R0, #+0]
        MOVS     R1,#+18
        SMULBB   R1,R0,R1
        UXTH     R1,R1            ;; ZeroExt  R1,R1,#+16,#+16
        MOVS     R0,#+0
        BL       LPLD_LCD_ShowString
//  897   CurY++;
        LDR.N    R0,??DataTable19_7
        LDRH     R0,[R0, #+0]
        ADDS     R0,R0,#+1
        LDR.N    R1,??DataTable19_7
        STRH     R0,[R1, #+0]
//  898   if((CurY+1)*18>MAX_Y)
        LDR.N    R0,??DataTable19_7
        LDRH     R0,[R0, #+0]
        ADDS     R0,R0,#+1
        MOVS     R1,#+18
        MULS     R0,R1,R0
        CMP      R0,#+241
        BLT.N    ??LPLD_LCD_PrintStringLine_0
//  899   {
//  900     CurY=0;
        MOVS     R0,#+0
        LDR.N    R1,??DataTable19_7
        STRH     R0,[R1, #+0]
//  901   }
//  902 }
??LPLD_LCD_PrintStringLine_0:
        POP      {R0,R1,R4-R6,PC}  ;; return
//  903 
//  904 /*
//  905  * LPLD_LCD_PrintString
//  906  * 接着当前行显示字符串
//  907  * 
//  908  * 参数： 
//  909  *    *str--字符串
//  910  *    strColor--字符串字体颜色
//  911  *    bkColor--字符背景颜色
//  912  *
//  913  * 输出:
//  914  *    无
//  915  */

        SECTION `.text`:CODE:NOROOT(1)
        THUMB
//  916 void LPLD_LCD_PrintString(uint8 *str,uint16 Color, uint16 bkColor)
//  917 {
LPLD_LCD_PrintString:
        PUSH     {R4-R6,LR}
        SUB      SP,SP,#+8
        MOVS     R4,R0
        MOVS     R5,R1
        MOVS     R6,R2
//  918   LPLD_LCD_ShowString(CurX, (CurY-1)*18, str, Color, bkColor);
        UXTH     R6,R6            ;; ZeroExt  R6,R6,#+16,#+16
        STR      R6,[SP, #+0]
        MOVS     R3,R5
        UXTH     R3,R3            ;; ZeroExt  R3,R3,#+16,#+16
        MOVS     R2,R4
        LDR.N    R0,??DataTable19_7
        LDRH     R0,[R0, #+0]
        SUBS     R0,R0,#+1
        MOVS     R1,#+18
        SMULBB   R1,R0,R1
        UXTH     R1,R1            ;; ZeroExt  R1,R1,#+16,#+16
        LDR.N    R0,??DataTable19_6
        LDRH     R0,[R0, #+0]
        BL       LPLD_LCD_ShowString
//  919 }
        POP      {R0,R1,R4-R6,PC}  ;; return
//  920 
//  921 /*
//  922  * LPLD_LCD_PrintNumLine
//  923  * 另起一行显示数字
//  924  * 
//  925  * 参数： 
//  926  *    num--数字
//  927  *    len--数字长度
//  928  *    numColor--字符字体颜色
//  929  *    bkColor--字符背景颜色
//  930  *
//  931  * 输出:
//  932  *    无
//  933  */

        SECTION `.text`:CODE:NOROOT(1)
        THUMB
//  934 void LPLD_LCD_PrintNumLine(uint16 num,uint8 len,uint16 numColor, uint16 bkColor)
//  935 {
LPLD_LCD_PrintNumLine:
        PUSH     {R4-R7,LR}
        SUB      SP,SP,#+12
        MOVS     R4,R0
        MOVS     R5,R1
        MOVS     R6,R2
        MOVS     R7,R3
//  936   CurX = 0;
        MOVS     R0,#+0
        LDR.N    R1,??DataTable19_6
        STRH     R0,[R1, #+0]
//  937   LPLD_LCD_ShowNum(0, CurY*18, num, len, numColor, bkColor);
        UXTH     R7,R7            ;; ZeroExt  R7,R7,#+16,#+16
        STR      R7,[SP, #+4]
        UXTH     R6,R6            ;; ZeroExt  R6,R6,#+16,#+16
        STR      R6,[SP, #+0]
        MOVS     R3,R5
        UXTB     R3,R3            ;; ZeroExt  R3,R3,#+24,#+24
        MOVS     R2,R4
        UXTH     R2,R2            ;; ZeroExt  R2,R2,#+16,#+16
        LDR.N    R0,??DataTable19_7
        LDRH     R0,[R0, #+0]
        MOVS     R1,#+18
        SMULBB   R1,R0,R1
        UXTH     R1,R1            ;; ZeroExt  R1,R1,#+16,#+16
        MOVS     R0,#+0
        BL       LPLD_LCD_ShowNum
//  938   CurY++;
        LDR.N    R0,??DataTable19_7
        LDRH     R0,[R0, #+0]
        ADDS     R0,R0,#+1
        LDR.N    R1,??DataTable19_7
        STRH     R0,[R1, #+0]
//  939   if((CurY+1)*18>MAX_Y)
        LDR.N    R0,??DataTable19_7
        LDRH     R0,[R0, #+0]
        ADDS     R0,R0,#+1
        MOVS     R1,#+18
        MULS     R0,R1,R0
        CMP      R0,#+241
        BLT.N    ??LPLD_LCD_PrintNumLine_0
//  940   {
//  941     CurY=0;
        MOVS     R0,#+0
        LDR.N    R1,??DataTable19_7
        STRH     R0,[R1, #+0]
//  942   }
//  943 }
??LPLD_LCD_PrintNumLine_0:
        POP      {R0-R2,R4-R7,PC}  ;; return
//  944 
//  945 /*
//  946  * LPLD_LCD_PrintNum
//  947  * 接着当前行显示数字
//  948  * 
//  949  * 参数： 
//  950  *    num--数字
//  951  *    len--数字长度
//  952  *    numColor--字符字体颜色
//  953  *    bkColor--字符背景颜色
//  954  *
//  955  * 输出:
//  956  *    无
//  957  */

        SECTION `.text`:CODE:NOROOT(1)
        THUMB
//  958 void LPLD_LCD_PrintNum(uint16 num,uint8 len,uint16 Color, uint16 bkColor)
//  959 {
LPLD_LCD_PrintNum:
        PUSH     {R4-R7,LR}
        SUB      SP,SP,#+12
        MOVS     R4,R0
        MOVS     R5,R1
        MOVS     R6,R2
        MOVS     R7,R3
//  960   LPLD_LCD_ShowNum(CurX, (CurY-1)*18, num,len, Color, bkColor);
        UXTH     R7,R7            ;; ZeroExt  R7,R7,#+16,#+16
        STR      R7,[SP, #+4]
        UXTH     R6,R6            ;; ZeroExt  R6,R6,#+16,#+16
        STR      R6,[SP, #+0]
        MOVS     R3,R5
        UXTB     R3,R3            ;; ZeroExt  R3,R3,#+24,#+24
        MOVS     R2,R4
        UXTH     R2,R2            ;; ZeroExt  R2,R2,#+16,#+16
        LDR.N    R0,??DataTable19_7
        LDRH     R0,[R0, #+0]
        SUBS     R0,R0,#+1
        MOVS     R1,#+18
        SMULBB   R1,R0,R1
        UXTH     R1,R1            ;; ZeroExt  R1,R1,#+16,#+16
        LDR.N    R0,??DataTable19_6
        LDRH     R0,[R0, #+0]
        BL       LPLD_LCD_ShowNum
//  961 }
        POP      {R0-R2,R4-R7,PC}  ;; return

        SECTION `.text`:CODE:NOROOT(2)
        SECTION_TYPE SHT_PROGBITS, 0
        DATA
??DataTable19:
        DC32     0x400ff080

        SECTION `.text`:CODE:NOROOT(2)
        SECTION_TYPE SHT_PROGBITS, 0
        DATA
??DataTable19_1:
        DC32     0x60010000

        SECTION `.text`:CODE:NOROOT(2)
        SECTION_TYPE SHT_PROGBITS, 0
        DATA
??DataTable19_2:
        DC32     LPLD_LCD_INFO

        SECTION `.text`:CODE:NOROOT(2)
        SECTION_TYPE SHT_PROGBITS, 0
        DATA
??DataTable19_3:
        DC32     0x43fe104c

        SECTION `.text`:CODE:NOROOT(2)
        SECTION_TYPE SHT_PROGBITS, 0
        DATA
??DataTable19_4:
        DC32     LCD_GRAM

        SECTION `.text`:CODE:NOROOT(2)
        SECTION_TYPE SHT_PROGBITS, 0
        DATA
??DataTable19_5:
        DC32     asc2_1608

        SECTION `.text`:CODE:NOROOT(2)
        SECTION_TYPE SHT_PROGBITS, 0
        DATA
??DataTable19_6:
        DC32     CurX

        SECTION `.text`:CODE:NOROOT(2)
        SECTION_TYPE SHT_PROGBITS, 0
        DATA
??DataTable19_7:
        DC32     CurY

        SECTION `.iar_vfe_header`:DATA:NOALLOC:NOROOT(2)
        SECTION_TYPE SHT_PROGBITS, 0
        DATA
        DC32 0

        SECTION __DLIB_PERTHREAD:DATA:REORDER:NOROOT(0)
        SECTION_TYPE SHT_PROGBITS, 0

        SECTION __DLIB_PERTHREAD_init:DATA:REORDER:NOROOT(0)
        SECTION_TYPE SHT_PROGBITS, 0

        END
//  962 
//  963 
// 
//    20 bytes in section .bss
// 1 520 bytes in section .rodata
// 3 476 bytes in section .text
// 
// 3 476 bytes of CODE  memory
// 1 520 bytes of CONST memory
//    20 bytes of DATA  memory
//
//Errors: none
//Warnings: none
