///////////////////////////////////////////////////////////////////////////////
//
// IAR ANSI C/C++ Compiler V7.20.2.7424/W32 for ARM       14/Aug/2016  11:03:51
// Copyright 1999-2014 IAR Systems AB.
//
//    Cpu mode     =  thumb
//    Endian       =  little
//    Source file  =  
//        C:\百度云同步盘\比赛代码\LPLD_OSKinetis_V3\project\NXP_powerctl\app\BSP\nvic.c
//    Command line =  
//        C:\百度云同步盘\比赛代码\LPLD_OSKinetis_V3\project\NXP_powerctl\app\BSP\nvic.c
//        -D LPLD_K60 -lCN
//        C:\百度云同步盘\比赛代码\LPLD_OSKinetis_V3\project\NXP_powerctl\iar\FLASH\List\
//        -lB
//        C:\百度云同步盘\比赛代码\LPLD_OSKinetis_V3\project\NXP_powerctl\iar\FLASH\List\
//        -o
//        C:\百度云同步盘\比赛代码\LPLD_OSKinetis_V3\project\NXP_powerctl\iar\FLASH\Obj\
//        --no_cse --no_unroll --no_inline --no_code_motion --no_tbaa
//        --no_clustering --no_scheduling --debug --endian=little
//        --cpu=Cortex-M4 -e --fpu=None --dlib_config "C:\Program Files
//        (x86)\IAR Systems\Embedded Workbench
//        7.0\arm\INC\c\DLib_Config_Normal.h" -I
//        C:\百度云同步盘\比赛代码\LPLD_OSKinetis_V3\project\NXP_powerctl\iar\..\app\
//        -I
//        C:\百度云同步盘\比赛代码\LPLD_OSKinetis_V3\project\NXP_powerctl\iar\..\app\BSP\
//        -I
//        C:\百度云同步盘\比赛代码\LPLD_OSKinetis_V3\project\NXP_powerctl\iar\..\app\ITAC\
//        -I
//        C:\百度云同步盘\比赛代码\LPLD_OSKinetis_V3\project\NXP_powerctl\iar\..\app\CTL\
//        -I
//        C:\百度云同步盘\比赛代码\LPLD_OSKinetis_V3\project\NXP_powerctl\iar\..\..\..\lib\CPU\
//        -I
//        C:\百度云同步盘\比赛代码\LPLD_OSKinetis_V3\project\NXP_powerctl\iar\..\..\..\lib\common\
//        -I
//        C:\百度云同步盘\比赛代码\LPLD_OSKinetis_V3\project\NXP_powerctl\iar\..\..\..\lib\LPLD\
//        -I
//        C:\百度云同步盘\比赛代码\LPLD_OSKinetis_V3\project\NXP_powerctl\iar\..\..\..\lib\LPLD\HW\
//        -I
//        C:\百度云同步盘\比赛代码\LPLD_OSKinetis_V3\project\NXP_powerctl\iar\..\..\..\lib\LPLD\DEV\
//        -I
//        C:\百度云同步盘\比赛代码\LPLD_OSKinetis_V3\project\NXP_powerctl\iar\..\..\..\lib\uCOS-II\Ports\
//        -I
//        C:\百度云同步盘\比赛代码\LPLD_OSKinetis_V3\project\NXP_powerctl\iar\..\..\..\lib\uCOS-II\Source\
//        -I
//        C:\百度云同步盘\比赛代码\LPLD_OSKinetis_V3\project\NXP_powerctl\iar\..\..\..\lib\FatFs\
//        -I
//        C:\百度云同步盘\比赛代码\LPLD_OSKinetis_V3\project\NXP_powerctl\iar\..\..\..\lib\FatFs\option\
//        -I
//        C:\百度云同步盘\比赛代码\LPLD_OSKinetis_V3\project\NXP_powerctl\iar\..\..\..\lib\USB\common\
//        -I
//        C:\百度云同步盘\比赛代码\LPLD_OSKinetis_V3\project\NXP_powerctl\iar\..\..\..\lib\USB\driver\
//        -I
//        C:\百度云同步盘\比赛代码\LPLD_OSKinetis_V3\project\NXP_powerctl\iar\..\..\..\lib\USB\descriptor\
//        -I
//        C:\百度云同步盘\比赛代码\LPLD_OSKinetis_V3\project\NXP_powerctl\iar\..\..\..\lib\USB\class\
//        -On -I "C:\Program Files (x86)\IAR Systems\Embedded Workbench
//        7.0\arm\CMSIS\Include\" -D ARM_MATH_CM4
//    List file    =  
//        C:\百度云同步盘\比赛代码\LPLD_OSKinetis_V3\project\NXP_powerctl\iar\FLASH\List\nvic.s
//
///////////////////////////////////////////////////////////////////////////////

        #define SHT_PROGBITS 0x1

        EXTERN LPLD_NVIC_Init
        EXTERN __aeabi_memcpy4

        PUBLIC NVIC_init
        PUBLIC nvic_init_struct

// C:\百度云同步盘\比赛代码\LPLD_OSKinetis_V3\project\NXP_powerctl\app\BSP\nvic.c
//    1 #include "include.h"
//    2 

        SECTION `.bss`:DATA:REORDER:NOROOT(2)
//    3 NVIC_InitTypeDef nvic_init_struct;
nvic_init_struct:
        DS8 20
//    4 

        SECTION `.text`:CODE:NOROOT(2)
        THUMB
//    5 void NVIC_init()
//    6 { 
NVIC_init:
        PUSH     {R7,LR}
//    7   //上位机的接收中断应该最高
//    8   
//    9   nvic_init_struct.NVIC_IRQChannel = PORTD_IRQn; //1ms调度，内部只有计数
        MOVS     R0,#+90
        LDR.N    R1,??NVIC_init_0
        STRB     R0,[R1, #+0]
//   10   nvic_init_struct.NVIC_IRQChannelGroupPriority = NVIC_PriorityGroup_3;
        MOVS     R0,#+4
        LDR.N    R1,??NVIC_init_0
        STR      R0,[R1, #+4]
//   11   nvic_init_struct.NVIC_IRQChannelPreemptionPriority = 0;
        MOVS     R0,#+0
        LDR.N    R1,??NVIC_init_0
        STR      R0,[R1, #+8]
//   12   nvic_init_struct.NVIC_IRQChannelSubPriority = 0;  
        MOVS     R0,#+0
        LDR.N    R1,??NVIC_init_0
        STR      R0,[R1, #+12]
//   13   nvic_init_struct.NVIC_IRQChannelEnable = TRUE;
        MOVS     R0,#+1
        LDR.N    R1,??NVIC_init_0
        STRB     R0,[R1, #+16]
//   14   LPLD_NVIC_Init(nvic_init_struct);
        LDR.N    R1,??NVIC_init_0
        SUB      SP,SP,#+16
        MOV      R0,SP
        MOVS     R2,#+20
        BL       __aeabi_memcpy4
        POP      {R0-R3}
        BL       LPLD_NVIC_Init
//   15   
//   16   nvic_init_struct.NVIC_IRQChannel = PORTE_IRQn; //1ms调度，内部只有计数
        MOVS     R0,#+91
        LDR.N    R1,??NVIC_init_0
        STRB     R0,[R1, #+0]
//   17   nvic_init_struct.NVIC_IRQChannelGroupPriority = NVIC_PriorityGroup_3;
        MOVS     R0,#+4
        LDR.N    R1,??NVIC_init_0
        STR      R0,[R1, #+4]
//   18   nvic_init_struct.NVIC_IRQChannelPreemptionPriority = 1;
        MOVS     R0,#+1
        LDR.N    R1,??NVIC_init_0
        STR      R0,[R1, #+8]
//   19   nvic_init_struct.NVIC_IRQChannelSubPriority = 0;  
        MOVS     R0,#+0
        LDR.N    R1,??NVIC_init_0
        STR      R0,[R1, #+12]
//   20   nvic_init_struct.NVIC_IRQChannelEnable = TRUE;
        MOVS     R0,#+1
        LDR.N    R1,??NVIC_init_0
        STRB     R0,[R1, #+16]
//   21   LPLD_NVIC_Init(nvic_init_struct);
        LDR.N    R1,??NVIC_init_0
        SUB      SP,SP,#+16
        MOV      R0,SP
        MOVS     R2,#+20
        BL       __aeabi_memcpy4
        POP      {R0-R3}
        BL       LPLD_NVIC_Init
//   22   
//   23   nvic_init_struct.NVIC_IRQChannel = UART5_RX_TX_IRQn;
        MOVS     R0,#+55
        LDR.N    R1,??NVIC_init_0
        STRB     R0,[R1, #+0]
//   24   nvic_init_struct.NVIC_IRQChannelGroupPriority = NVIC_PriorityGroup_3;
        MOVS     R0,#+4
        LDR.N    R1,??NVIC_init_0
        STR      R0,[R1, #+4]
//   25   nvic_init_struct.NVIC_IRQChannelPreemptionPriority = 2;
        MOVS     R0,#+2
        LDR.N    R1,??NVIC_init_0
        STR      R0,[R1, #+8]
//   26   nvic_init_struct.NVIC_IRQChannelSubPriority = 0;  
        MOVS     R0,#+0
        LDR.N    R1,??NVIC_init_0
        STR      R0,[R1, #+12]
//   27   nvic_init_struct.NVIC_IRQChannelEnable = TRUE;
        MOVS     R0,#+1
        LDR.N    R1,??NVIC_init_0
        STRB     R0,[R1, #+16]
//   28   LPLD_NVIC_Init(nvic_init_struct);
        LDR.N    R1,??NVIC_init_0
        SUB      SP,SP,#+16
        MOV      R0,SP
        MOVS     R2,#+20
        BL       __aeabi_memcpy4
        POP      {R0-R3}
        BL       LPLD_NVIC_Init
//   29   
//   30   nvic_init_struct.NVIC_IRQChannel = PIT0_IRQn; //1ms调度，内部只有计数
        MOVS     R0,#+68
        LDR.N    R1,??NVIC_init_0
        STRB     R0,[R1, #+0]
//   31   nvic_init_struct.NVIC_IRQChannelGroupPriority = NVIC_PriorityGroup_3;
        MOVS     R0,#+4
        LDR.N    R1,??NVIC_init_0
        STR      R0,[R1, #+4]
//   32   nvic_init_struct.NVIC_IRQChannelPreemptionPriority = 3;
        MOVS     R0,#+3
        LDR.N    R1,??NVIC_init_0
        STR      R0,[R1, #+8]
//   33   nvic_init_struct.NVIC_IRQChannelSubPriority = 0;  
        MOVS     R0,#+0
        LDR.N    R1,??NVIC_init_0
        STR      R0,[R1, #+12]
//   34   nvic_init_struct.NVIC_IRQChannelEnable = TRUE;
        MOVS     R0,#+1
        LDR.N    R1,??NVIC_init_0
        STRB     R0,[R1, #+16]
//   35   LPLD_NVIC_Init(nvic_init_struct);
        LDR.N    R1,??NVIC_init_0
        SUB      SP,SP,#+16
        MOV      R0,SP
        MOVS     R2,#+20
        BL       __aeabi_memcpy4
        POP      {R0-R3}
        BL       LPLD_NVIC_Init
//   36   
//   37   
//   38 }
        POP      {R0,PC}          ;; return
        DATA
??NVIC_init_0:
        DC32     nvic_init_struct

        SECTION `.iar_vfe_header`:DATA:NOALLOC:NOROOT(2)
        SECTION_TYPE SHT_PROGBITS, 0
        DATA
        DC32 0

        SECTION __DLIB_PERTHREAD:DATA:REORDER:NOROOT(0)
        SECTION_TYPE SHT_PROGBITS, 0

        SECTION __DLIB_PERTHREAD_init:DATA:REORDER:NOROOT(0)
        SECTION_TYPE SHT_PROGBITS, 0

        END
// 
//  20 bytes in section .bss
// 200 bytes in section .text
// 
// 200 bytes of CODE memory
//  20 bytes of DATA memory
//
//Errors: none
//Warnings: none
