///////////////////////////////////////////////////////////////////////////////
//
// IAR ANSI C/C++ Compiler V7.30.3.8024/W32 for ARM       16/Aug/2016  11:11:13
// Copyright 1999-2014 IAR Systems AB.
//
//    Cpu mode     =  thumb
//    Endian       =  little
//    Source file  =  E:\飞思卡尔\新工程\LPLD_OSKinetis_V3\lib\LPLD\HW\HW_PDB.c
//    Command line =  
//        E:\飞思卡尔\新工程\LPLD_OSKinetis_V3\lib\LPLD\HW\HW_PDB.c -D LPLD_K60
//        -lCN
//        "E:\飞思卡尔\新工程\LPLD_OSKinetis_V3\project\NXP_(golden_cyprinoid)
//        1.9\iar\FLASH\List\" -lB
//        "E:\飞思卡尔\新工程\LPLD_OSKinetis_V3\project\NXP_(golden_cyprinoid)
//        1.9\iar\FLASH\List\" -o
//        "E:\飞思卡尔\新工程\LPLD_OSKinetis_V3\project\NXP_(golden_cyprinoid)
//        1.9\iar\FLASH\Obj\" --no_cse --no_unroll --no_inline --no_code_motion
//        --no_tbaa --no_clustering --no_scheduling --debug --endian=little
//        --cpu=Cortex-M4 -e --fpu=None --dlib_config
//        D:\IAR\arm\INC\c\DLib_Config_Normal.h -I
//        "E:\飞思卡尔\新工程\LPLD_OSKinetis_V3\project\NXP_(golden_cyprinoid)
//        1.9\iar\..\app\" -I
//        "E:\飞思卡尔\新工程\LPLD_OSKinetis_V3\project\NXP_(golden_cyprinoid)
//        1.9\iar\..\app\BSP\" -I
//        "E:\飞思卡尔\新工程\LPLD_OSKinetis_V3\project\NXP_(golden_cyprinoid)
//        1.9\iar\..\app\ITAC\" -I
//        "E:\飞思卡尔\新工程\LPLD_OSKinetis_V3\project\NXP_(golden_cyprinoid)
//        1.9\iar\..\app\CTL\" -I
//        "E:\飞思卡尔\新工程\LPLD_OSKinetis_V3\project\NXP_(golden_cyprinoid)
//        1.9\iar\..\app\MAIN\" -I
//        "E:\飞思卡尔\新工程\LPLD_OSKinetis_V3\project\NXP_(golden_cyprinoid)
//        1.9\iar\..\app\SENSOR\" -I
//        "E:\飞思卡尔\新工程\LPLD_OSKinetis_V3\project\NXP_(golden_cyprinoid)
//        1.9\iar\..\..\..\lib\CPU\" -I
//        "E:\飞思卡尔\新工程\LPLD_OSKinetis_V3\project\NXP_(golden_cyprinoid)
//        1.9\iar\..\..\..\lib\common\" -I
//        "E:\飞思卡尔\新工程\LPLD_OSKinetis_V3\project\NXP_(golden_cyprinoid)
//        1.9\iar\..\..\..\lib\LPLD\" -I
//        "E:\飞思卡尔\新工程\LPLD_OSKinetis_V3\project\NXP_(golden_cyprinoid)
//        1.9\iar\..\..\..\lib\LPLD\HW\" -I
//        "E:\飞思卡尔\新工程\LPLD_OSKinetis_V3\project\NXP_(golden_cyprinoid)
//        1.9\iar\..\..\..\lib\LPLD\DEV\" -I
//        "E:\飞思卡尔\新工程\LPLD_OSKinetis_V3\project\NXP_(golden_cyprinoid)
//        1.9\iar\..\..\..\lib\uCOS-II\Ports\" -I
//        "E:\飞思卡尔\新工程\LPLD_OSKinetis_V3\project\NXP_(golden_cyprinoid)
//        1.9\iar\..\..\..\lib\uCOS-II\Source\" -I
//        "E:\飞思卡尔\新工程\LPLD_OSKinetis_V3\project\NXP_(golden_cyprinoid)
//        1.9\iar\..\..\..\lib\FatFs\" -I
//        "E:\飞思卡尔\新工程\LPLD_OSKinetis_V3\project\NXP_(golden_cyprinoid)
//        1.9\iar\..\..\..\lib\FatFs\option\" -I
//        "E:\飞思卡尔\新工程\LPLD_OSKinetis_V3\project\NXP_(golden_cyprinoid)
//        1.9\iar\..\..\..\lib\USB\common\" -I
//        "E:\飞思卡尔\新工程\LPLD_OSKinetis_V3\project\NXP_(golden_cyprinoid)
//        1.9\iar\..\..\..\lib\USB\driver\" -I
//        "E:\飞思卡尔\新工程\LPLD_OSKinetis_V3\project\NXP_(golden_cyprinoid)
//        1.9\iar\..\..\..\lib\USB\descriptor\" -I
//        "E:\飞思卡尔\新工程\LPLD_OSKinetis_V3\project\NXP_(golden_cyprinoid)
//        1.9\iar\..\..\..\lib\USB\class\" -On -I D:\IAR\arm\CMSIS\Include\ -D
//        ARM_MATH_CM4
//    List file    =  
//        E:\飞思卡尔\新工程\LPLD_OSKinetis_V3\project\NXP_(golden_cyprinoid)
//        1.9\iar\FLASH\List\HW_PDB.s
//
///////////////////////////////////////////////////////////////////////////////

        #define SHT_PROGBITS 0x1

        EXTERN __aeabi_f2uiz
        EXTERN __aeabi_fdiv
        EXTERN __aeabi_fmul
        EXTERN __aeabi_ui2f
        EXTERN assert_failed
        EXTERN g_bus_clock

        PUBLIC LPLD_PDB_AdcTriggerCfg
        PUBLIC LPLD_PDB_DacTriggerCfg
        PUBLIC LPLD_PDB_Deinit
        PUBLIC LPLD_PDB_Init
        PUBLIC PDB_IRQHandler
        PUBLIC PDB_ISR
        PUBLIC PDB_SE_ISR
        PUBLIC pdb_sc_mults

// E:\飞思卡尔\新工程\LPLD_OSKinetis_V3\lib\LPLD\HW\HW_PDB.c
//    1 /**
//    2  * @file HW_PDB.c
//    3  * @version 3.0[By LPLD]
//    4  * @date 2013-06-18
//    5  * @brief PDB底层模块相关函数
//    6  *
//    7  * 更改建议:不建议修改
//    8  *
//    9  * 版权所有:北京拉普兰德电子技术有限公司
//   10  * http://www.lpld.cn
//   11  * mail:support@lpld.cn
//   12  *
//   13  * @par
//   14  * 本代码由拉普兰德[LPLD]开发并维护，并向所有使用者开放源代码。
//   15  * 开发者可以随意修使用或改源代码。但本段及以上注释应予以保留。
//   16  * 不得更改或删除原版权所有者姓名，二次开发者可以加注二次版权所有者。
//   17  * 但应在遵守此协议的基础上，开放源代码、不得出售代码本身。
//   18  * 拉普兰德不负责由于使用本代码所带来的任何事故、法律责任或相关不良影响。
//   19  * 拉普兰德无义务解释、说明本代码的具体原理、功能、实现方法。
//   20  * 除非拉普兰德[LPLD]授权，开发者不得将本代码用于商业产品。
//   21  */
//   22 #include "common.h"

        SECTION `.text`:CODE:NOROOT(1)
        THUMB
// static __interwork __softfp void NVIC_DisableIRQ(IRQn_Type)
NVIC_DisableIRQ:
        MOVS     R1,#+1
        ANDS     R2,R0,#0x1F
        LSLS     R1,R1,R2
        LDR.W    R2,??DataTable5  ;; 0xe000e180
        SXTB     R0,R0            ;; SignExt  R0,R0,#+24,#+24
        LSRS     R3,R0,#+5
        STR      R1,[R2, R3, LSL #+2]
        BX       LR               ;; return
//   23 #include "HW_PDB.h"
//   24 
//   25 //用户自定义中断服务函数数组

        SECTION `.bss`:DATA:REORDER:NOROOT(2)
//   26 PDB_ISR_CALLBACK PDB_ISR[1];
PDB_ISR:
        DS8 4

        SECTION `.bss`:DATA:REORDER:NOROOT(2)
//   27 PDB_ISR_CALLBACK PDB_SE_ISR[1];
PDB_SE_ISR:
        DS8 4

        SECTION `.rodata`:CONST:REORDER:NOROOT(2)
?_0:
        DATA
        DC8 45H, 3AH, 5CH, 0B7H, 0C9H, 0CBH, 0BCH, 0BFH
        DC8 0A8H, 0B6H, 0FBH, 5CH, 0D0H, 0C2H, 0B9H, 0A4H
        DC8 0B3H, 0CCH, 5CH, 4CH, 50H, 4CH, 44H, 5FH
        DC8 4FH, 53H, 4BH, 69H, 6EH, 65H, 74H, 69H
        DC8 73H, 5FH, 56H, 33H, 5CH, 6CH, 69H, 62H
        DC8 5CH, 4CH, 50H, 4CH, 44H, 5CH, 48H, 57H
        DC8 5CH, 48H, 57H, 5FH, 50H, 44H, 42H, 2EH
        DC8 63H, 0
        DC8 0, 0
//   28 
//   29 //PDB时钟预分频系数乘数

        SECTION `.rodata`:CONST:REORDER:NOROOT(2)
//   30 const uint8 pdb_sc_mults[4] = {1, 10, 20, 40};
pdb_sc_mults:
        DATA
        DC8 1, 10, 20, 40
//   31 
//   32 
//   33 /*
//   34  * LPLD_PDB_Init
//   35  * PDBx模块通用初始化函数，初始化PDBx计数器周期、工作模式、触发源、中断等配置
//   36  * 
//   37  * 参数:
//   38  *    pdb_init_struct--PDBx初始化结构体，
//   39  *                        具体定义见PDB_InitTypeDef
//   40  *
//   41  * 输出:
//   42  *    0--配置错误
//   43  *    1--配置成功
//   44  */

        SECTION `.text`:CODE:NOROOT(1)
        THUMB
//   45 uint8 LPLD_PDB_Init(PDB_InitTypeDef pdb_init_struct)
//   46 {
LPLD_PDB_Init:
        PUSH     {R0-R3}
        PUSH     {R4-R11,LR}
        SUB      SP,SP,#+12
//   47   uint32 us = pdb_init_struct.PDB_CounterPeriodUs
//   48             + pdb_init_struct.PDB_CounterPeriodMs*1000
//   49             + pdb_init_struct.PDB_CounterPeriodS*1000000;
        LDR      R0,[SP, #+48]
        LDR      R1,[SP, #+52]
        MOV      R2,#+1000
        MLA      R0,R2,R1,R0
        LDR      R1,[SP, #+56]
        LDR.W    R2,??DataTable5_1  ;; 0xf4240
        MLA      R4,R2,R1,R0
//   50   uint32 delayus = pdb_init_struct.PDB_DelayUs
//   51             + pdb_init_struct.PDB_DelayMs*1000
//   52             + pdb_init_struct.PDB_DelayS*1000000;
        LDR      R0,[SP, #+68]
        LDR      R1,[SP, #+72]
        MOV      R2,#+1000
        MLA      R0,R2,R1,R0
        LDR      R1,[SP, #+76]
        LDR.W    R2,??DataTable5_1  ;; 0xf4240
        MLA      R5,R2,R1,R0
//   53   uint8 loadmode = pdb_init_struct.PDB_LoadModeSel;
        LDRB     R6,[SP, #+60]
//   54   uint8 trriger = pdb_init_struct.PDB_TriggerInputSourceSel;
        LDRB     R7,[SP, #+61]
//   55   uint32 bus_clk = g_bus_clock/1000000;
        LDR.W    R0,??DataTable5_2
        LDR      R0,[R0, #+0]
        LDR.W    R1,??DataTable5_1  ;; 0xf4240
        UDIV     R8,R0,R1
//   56   uint8 prescaler, mult;
//   57   uint32 mod;
//   58   float32 temp;
//   59   
//   60   //参数检查
//   61   ASSERT( loadmode <= LOADMODE_3 );       //加载模式选择
        UXTB     R6,R6            ;; ZeroExt  R6,R6,#+24,#+24
        CMP      R6,#+4
        BLT.N    ??LPLD_PDB_Init_0
        MOVS     R1,#+61
        LDR.W    R0,??DataTable5_3
        BL       assert_failed
//   62   ASSERT( trriger <= TRIGGER_SOFTWARE );  //触发输入源选择
??LPLD_PDB_Init_0:
        UXTB     R7,R7            ;; ZeroExt  R7,R7,#+24,#+24
        CMP      R7,#+16
        BLT.N    ??LPLD_PDB_Init_1
        MOVS     R1,#+62
        LDR.W    R0,??DataTable5_3
        BL       assert_failed
//   63   
//   64 /*
//   65  *************************************************
//   66   【LPLD注解】PDB关键系数
//   67   prescaler(总线时钟预分频系数): 2^n(n:0~7)
//   68   mult(prescaler的倍数): 1、10、20、40
//   69   mod(计数器模数，影响计数器周期): 0~0xFFFF
//   70   计数器周期 = (prescaler*mult*mod)/bus_clk
//   71  *************************************************
//   72  */
//   73   
//   74   //根据期望的计数器周期自动设定prescaler、mult和mod的值
//   75   for(uint8 i=0; i<4; i++)
??LPLD_PDB_Init_1:
        MOVS     R0,#+0
??LPLD_PDB_Init_2:
        UXTB     R0,R0            ;; ZeroExt  R0,R0,#+24,#+24
        CMP      R0,#+4
        BGE.N    ??LPLD_PDB_Init_3
//   76   {
//   77     mult = i;
        MOV      R10,R0
//   78     for(uint8 j=0; j<8; j++)
        MOVS     R1,#+0
??LPLD_PDB_Init_4:
        UXTB     R1,R1            ;; ZeroExt  R1,R1,#+24,#+24
        CMP      R1,#+8
        BGE.N    ??LPLD_PDB_Init_5
//   79     {
//   80       prescaler = j;
        MOV      R9,R1
//   81       mod = (bus_clk*us)/((1<<j)*pdb_sc_mults[i]);
        MUL      R2,R4,R8
        MOVS     R3,#+1
        LSLS     R3,R3,R1
        LDR.W    R12,??DataTable5_4
        UXTB     R0,R0            ;; ZeroExt  R0,R0,#+24,#+24
        LDRB     R12,[R0, R12]
        MUL      R3,R12,R3
        UDIV     R2,R2,R3
        MOV      R11,R2
//   82       if(mod <= 0xFFFFu)
        CMP      R11,#+65536
        BCC.N    ??LPLD_PDB_Init_5
//   83         break;
//   84     }
??LPLD_PDB_Init_6:
        ADDS     R1,R1,#+1
        B.N      ??LPLD_PDB_Init_4
//   85     if(mod <= 0xFFFFu)
??LPLD_PDB_Init_5:
        CMP      R11,#+65536
        BCC.N    ??LPLD_PDB_Init_3
//   86       break;
//   87     else if(i == 3)
??LPLD_PDB_Init_7:
        UXTB     R0,R0            ;; ZeroExt  R0,R0,#+24,#+24
        CMP      R0,#+3
        BNE.N    ??LPLD_PDB_Init_8
//   88       return 0;         //PDB计数周期设置的过小，计算错误
        MOVS     R0,#+0
        B.N      ??LPLD_PDB_Init_9
//   89   }
??LPLD_PDB_Init_8:
        ADDS     R0,R0,#+1
        B.N      ??LPLD_PDB_Init_2
//   90   
//   91   //使能PDB时钟
//   92   SIM->SCGC6 |= SIM_SCGC6_PDB_MASK;
??LPLD_PDB_Init_3:
        LDR.W    R0,??DataTable5_5  ;; 0x4004803c
        LDR      R0,[R0, #+0]
        ORRS     R0,R0,#0x400000
        LDR.W    R1,??DataTable5_5  ;; 0x4004803c
        STR      R0,[R1, #+0]
//   93   
//   94   //初始化SC寄存器
//   95   PDB0->SC = 0x00;
        MOVS     R0,#+0
        LDR.W    R1,??DataTable5_6  ;; 0x40036000
        STR      R0,[R1, #+0]
//   96   //使能PDB
//   97   PDB0->SC |= PDB_SC_PDBEN_MASK;
        LDR.W    R0,??DataTable5_6  ;; 0x40036000
        LDR      R0,[R0, #+0]
        ORRS     R0,R0,#0x80
        LDR.W    R1,??DataTable5_6  ;; 0x40036000
        STR      R0,[R1, #+0]
//   98   PDB0->SC |= PDB_SC_MULT(mult);
        LDR.W    R0,??DataTable5_6  ;; 0x40036000
        LDR      R0,[R0, #+0]
        UXTB     R10,R10          ;; ZeroExt  R10,R10,#+24,#+24
        LSLS     R1,R10,#+2
        ANDS     R1,R1,#0xC
        ORRS     R0,R1,R0
        LDR.W    R1,??DataTable5_6  ;; 0x40036000
        STR      R0,[R1, #+0]
//   99   PDB0->SC |= PDB_SC_PRESCALER(prescaler);
        LDR.W    R0,??DataTable5_6  ;; 0x40036000
        LDR      R0,[R0, #+0]
        UXTB     R9,R9            ;; ZeroExt  R9,R9,#+24,#+24
        LSLS     R1,R9,#+12
        ANDS     R1,R1,#0x7000
        ORRS     R0,R1,R0
        LDR.W    R1,??DataTable5_6  ;; 0x40036000
        STR      R0,[R1, #+0]
//  100   //配置MOD、IDLY、CHnDLYm、INTx和POyDLY寄存器的加载模式
//  101   PDB0->SC |= PDB_SC_LDMOD(loadmode); 
        LDR.W    R0,??DataTable5_6  ;; 0x40036000
        LDR      R0,[R0, #+0]
        UXTB     R6,R6            ;; ZeroExt  R6,R6,#+24,#+24
        LSLS     R1,R6,#+18
        ANDS     R1,R1,#0xC0000
        ORRS     R0,R1,R0
        LDR.N    R1,??DataTable5_6  ;; 0x40036000
        STR      R0,[R1, #+0]
//  102   //配置触发输入源
//  103   PDB0->SC |= PDB_SC_TRGSEL(trriger);
        LDR.N    R0,??DataTable5_6  ;; 0x40036000
        LDR      R0,[R0, #+0]
        UXTB     R7,R7            ;; ZeroExt  R7,R7,#+24,#+24
        LSLS     R1,R7,#+8
        ANDS     R1,R1,#0xF00
        ORRS     R0,R1,R0
        LDR.N    R1,??DataTable5_6  ;; 0x40036000
        STR      R0,[R1, #+0]
//  104   
//  105   //是否使能连续模式
//  106   if(pdb_init_struct.PDB_ContinuousModeEnable == TRUE)
        LDRB     R0,[SP, #+62]
        CMP      R0,#+1
        BNE.N    ??LPLD_PDB_Init_10
//  107     PDB0->SC |= PDB_SC_CONT_MASK;
        LDR.N    R0,??DataTable5_6  ;; 0x40036000
        LDR      R0,[R0, #+0]
        ORRS     R0,R0,#0x2
        LDR.N    R1,??DataTable5_6  ;; 0x40036000
        STR      R0,[R1, #+0]
        B.N      ??LPLD_PDB_Init_11
//  108   else
//  109     PDB0->SC &= ~(PDB_SC_CONT_MASK);
??LPLD_PDB_Init_10:
        LDR.N    R0,??DataTable5_6  ;; 0x40036000
        LDR      R0,[R0, #+0]
        BICS     R0,R0,#0x2
        LDR.N    R1,??DataTable5_6  ;; 0x40036000
        STR      R0,[R1, #+0]
//  110   
//  111   //是否使能DMA
//  112   if(pdb_init_struct.PDB_DmaEnable == TRUE)
??LPLD_PDB_Init_11:
        LDRB     R0,[SP, #+63]
        CMP      R0,#+1
        BNE.N    ??LPLD_PDB_Init_12
//  113     PDB0->SC |= PDB_SC_DMAEN_MASK;
        LDR.N    R0,??DataTable5_6  ;; 0x40036000
        LDR      R0,[R0, #+0]
        ORRS     R0,R0,#0x8000
        LDR.N    R1,??DataTable5_6  ;; 0x40036000
        STR      R0,[R1, #+0]
        B.N      ??LPLD_PDB_Init_13
//  114   else
//  115     PDB0->SC &= ~(PDB_SC_DMAEN_MASK);
??LPLD_PDB_Init_12:
        LDR.N    R0,??DataTable5_6  ;; 0x40036000
        LDR      R0,[R0, #+0]
        BICS     R0,R0,#0x8000
        LDR.N    R1,??DataTable5_6  ;; 0x40036000
        STR      R0,[R1, #+0]
//  116   
//  117   if(pdb_init_struct.PDB_Isr != NULL)
??LPLD_PDB_Init_13:
        LDR      R0,[SP, #+80]
        CMP      R0,#+0
        BEQ.N    ??LPLD_PDB_Init_14
//  118   {
//  119     PDB_ISR[0] = pdb_init_struct.PDB_Isr;
        LDR      R0,[SP, #+80]
        LDR.N    R1,??DataTable5_7
        STR      R0,[R1, #+0]
//  120     //是否使能PDB中断
//  121     if(pdb_init_struct.PDB_IntEnable == TRUE)
        LDRB     R0,[SP, #+64]
        CMP      R0,#+1
        BNE.N    ??LPLD_PDB_Init_15
//  122       PDB0->SC |= PDB_SC_PDBIE_MASK;
        LDR.N    R0,??DataTable5_6  ;; 0x40036000
        LDR      R0,[R0, #+0]
        ORRS     R0,R0,#0x20
        LDR.N    R1,??DataTable5_6  ;; 0x40036000
        STR      R0,[R1, #+0]
        B.N      ??LPLD_PDB_Init_14
//  123     else
//  124       PDB0->SC &= ~(PDB_SC_PDBIE_MASK);
??LPLD_PDB_Init_15:
        LDR.N    R0,??DataTable5_6  ;; 0x40036000
        LDR      R0,[R0, #+0]
        BICS     R0,R0,#0x20
        LDR.N    R1,??DataTable5_6  ;; 0x40036000
        STR      R0,[R1, #+0]
//  125   }
//  126   
//  127   if(pdb_init_struct.PDB_SeqErrIsr != NULL)
??LPLD_PDB_Init_14:
        LDR      R0,[SP, #+84]
        CMP      R0,#+0
        BEQ.N    ??LPLD_PDB_Init_16
//  128   {
//  129     PDB_SE_ISR[0] = pdb_init_struct.PDB_SeqErrIsr;
        LDR      R0,[SP, #+84]
        LDR.N    R1,??DataTable5_8
        STR      R0,[R1, #+0]
//  130     //是否使能PDB序列错误中断
//  131     if(pdb_init_struct.PDB_SeqErrIntEnable == TRUE)
        LDRB     R0,[SP, #+65]
        CMP      R0,#+1
        BNE.N    ??LPLD_PDB_Init_17
//  132       PDB0->SC |= PDB_SC_PDBEIE_MASK;
        LDR.N    R0,??DataTable5_6  ;; 0x40036000
        LDR      R0,[R0, #+0]
        ORRS     R0,R0,#0x20000
        LDR.N    R1,??DataTable5_6  ;; 0x40036000
        STR      R0,[R1, #+0]
        B.N      ??LPLD_PDB_Init_16
//  133     else
//  134       PDB0->SC &= ~(PDB_SC_PDBEIE_MASK);
??LPLD_PDB_Init_17:
        LDR.N    R0,??DataTable5_6  ;; 0x40036000
        LDR      R0,[R0, #+0]
        BICS     R0,R0,#0x20000
        LDR.N    R1,??DataTable5_6  ;; 0x40036000
        STR      R0,[R1, #+0]
//  135   }
//  136   
//  137   //设置PDB中断延时时间
//  138   if( delayus <= us )
??LPLD_PDB_Init_16:
        CMP      R4,R5
        BCC.N    ??LPLD_PDB_Init_18
//  139   {
//  140     temp = (float32)mod/(float32)us;
        MOV      R0,R11
        BL       __aeabi_ui2f
        STR      R0,[SP, #+0]
        MOVS     R0,R4
        BL       __aeabi_ui2f
        MOVS     R1,R0
        LDR      R0,[SP, #+0]
        BL       __aeabi_fdiv
        STR      R0,[SP, #+4]
//  141     PDB0->IDLY = (uint32)(delayus*temp);
        MOVS     R0,R5
        BL       __aeabi_ui2f
        LDR      R1,[SP, #+4]
        BL       __aeabi_fmul
        BL       __aeabi_f2uiz
        LDR.N    R1,??DataTable5_9  ;; 0x4003600c
        STR      R0,[R1, #+0]
//  142   }
//  143   
//  144   //加载值
//  145   PDB0->SC |= PDB_SC_LDOK_MASK;
??LPLD_PDB_Init_18:
        LDR.N    R0,??DataTable5_6  ;; 0x40036000
        LDR      R0,[R0, #+0]
        ORRS     R0,R0,#0x1
        LDR.N    R1,??DataTable5_6  ;; 0x40036000
        STR      R0,[R1, #+0]
//  146   
//  147   return 1;
        MOVS     R0,#+1
??LPLD_PDB_Init_9:
        POP      {R1-R11}
        LDR      PC,[SP], #+20    ;; return
//  148 }
//  149 
//  150 /*
//  151  * LPLD_PDB_Deinit
//  152  * PDBx模块反初始化函数，禁用PDBx所有功能
//  153  * 
//  154  * 参数:
//  155  *    无
//  156  *
//  157  * 输出:
//  158  *    无
//  159  */

        SECTION `.text`:CODE:NOROOT(1)
        THUMB
//  160 void LPLD_PDB_Deinit(void)
//  161 {
LPLD_PDB_Deinit:
        PUSH     {R7,LR}
//  162  
//  163   PDB0->CH[0].C1 = 0;
        MOVS     R0,#+0
        LDR.N    R1,??DataTable5_10  ;; 0x40036010
        STR      R0,[R1, #+0]
//  164   PDB0->CH[1].C1 = 0;
        MOVS     R0,#+0
        LDR.N    R1,??DataTable5_11  ;; 0x40036038
        STR      R0,[R1, #+0]
//  165   
//  166   PDB0->DAC[0].INTC = 0;
        MOVS     R0,#+0
        LDR.N    R1,??DataTable5_12  ;; 0x40036150
        STR      R0,[R1, #+0]
//  167   PDB0->DAC[1].INTC = 0;
        MOVS     R0,#+0
        LDR.N    R1,??DataTable5_13  ;; 0x40036158
        STR      R0,[R1, #+0]
//  168   
//  169   PDB0->SC = 0;
        MOVS     R0,#+0
        LDR.N    R1,??DataTable5_6  ;; 0x40036000
        STR      R0,[R1, #+0]
//  170   
//  171   //禁用PDB时钟
//  172   SIM->SCGC6 &= ~(SIM_SCGC6_PDB_MASK);
        LDR.N    R0,??DataTable5_5  ;; 0x4004803c
        LDR      R0,[R0, #+0]
        BICS     R0,R0,#0x400000
        LDR.N    R1,??DataTable5_5  ;; 0x4004803c
        STR      R0,[R1, #+0]
//  173   
//  174   disable_irq(PDB0_IRQn);
        MOVS     R0,#+72
        BL       NVIC_DisableIRQ
//  175 }
        POP      {R0,PC}          ;; return
//  176 
//  177 
//  178 /*
//  179  * LPLD_PDB_AdcTriggerCfg
//  180  * PDBx触发ADCx模块配置函数
//  181  * 
//  182  * 参数:
//  183  *    adcx--ADCx模块号
//  184  *      |__ADC0          --ADC0
//  185  *      |__ADC1          --ADC1
//  186  *    cfg--ADCx预触发功能配置，可多个值合并配置(eg. cfg=PRETRIG_EN_A|PRETRIG_DLY_A;)
//  187  *      ADCx A组配置
//  188  *      |__PRETRIG_EN_A  --使能ADCx的A组预触发功能
//  189  *      |__PRETRIG_DLY_A --使能ADCx的A组延时输出预触发功能
//  190  *      |__PRETRIG_BB_A  --使能ADCx的A组“Back to Back”模式
//  191  *      ADCx B组配置
//  192  *      |__PRETRIG_EN_B  --使能ADCx的B组预触发功能
//  193  *      |__PRETRIG_DLY_B --使能ADCx的B组延时输出预触发功能
//  194  *      |__PRETRIG_BB_B  --使能ADCx的B组“Back to Back”模式
//  195  *    delay--ADCx A或B组的延时输出预触发时间，单位us
//  196  *      |__0~0xFFFF      --0~4095us
//  197  *
//  198  * 输出:
//  199  *    0--配置错误
//  200  *    1--配置成功
//  201  */

        SECTION `.text`:CODE:NOROOT(1)
        THUMB
//  202 uint8 LPLD_PDB_AdcTriggerCfg(ADC_Type *adcx, uint32 cfg, uint16 delay)
//  203 {
LPLD_PDB_AdcTriggerCfg:
        PUSH     {R4-R8,LR}
        MOVS     R3,R0
//  204   uint8 n,m;
//  205   uint8 prescaler, mult;
//  206   uint32 bus_clk = g_bus_clock/1000000;
        LDR.N    R0,??DataTable5_2
        LDR      R0,[R0, #+0]
        LDR.W    R12,??DataTable5_1  ;; 0xf4240
        UDIV     R12,R0,R12
//  207 
//  208   if(adcx == ADC0)
        LDR.N    R0,??DataTable5_14  ;; 0x4003b000
        CMP      R3,R0
        BNE.N    ??LPLD_PDB_AdcTriggerCfg_0
//  209     n = 0;
        MOVS     R0,#+0
        MOVS     R4,R0
        B.N      ??LPLD_PDB_AdcTriggerCfg_1
//  210   else if(adcx == ADC1)
??LPLD_PDB_AdcTriggerCfg_0:
        LDR.N    R0,??DataTable5_15  ;; 0x400bb000
        CMP      R3,R0
        BNE.N    ??LPLD_PDB_AdcTriggerCfg_2
//  211     n = 1;
        MOVS     R0,#+1
        MOVS     R4,R0
        B.N      ??LPLD_PDB_AdcTriggerCfg_1
//  212   else
//  213     return 0;
??LPLD_PDB_AdcTriggerCfg_2:
        MOVS     R0,#+0
        B.N      ??LPLD_PDB_AdcTriggerCfg_3
//  214     
//  215   if(cfg & 0x01)
??LPLD_PDB_AdcTriggerCfg_1:
        LSLS     R0,R1,#+31
        BPL.N    ??LPLD_PDB_AdcTriggerCfg_4
//  216     m = 0;
        MOVS     R0,#+0
        MOVS     R5,R0
        B.N      ??LPLD_PDB_AdcTriggerCfg_5
//  217   else if(cfg & 0x02)
??LPLD_PDB_AdcTriggerCfg_4:
        LSLS     R0,R1,#+30
        BPL.N    ??LPLD_PDB_AdcTriggerCfg_6
//  218     m = 1;
        MOVS     R0,#+1
        MOVS     R5,R0
        B.N      ??LPLD_PDB_AdcTriggerCfg_5
//  219   else
//  220     return 0;
??LPLD_PDB_AdcTriggerCfg_6:
        MOVS     R0,#+0
        B.N      ??LPLD_PDB_AdcTriggerCfg_3
//  221   
//  222   prescaler = 1<<((PDB0->SC & PDB_SC_PRESCALER_MASK) >> PDB_SC_PRESCALER_SHIFT);
??LPLD_PDB_AdcTriggerCfg_5:
        MOVS     R0,#+1
        LDR.W    LR,??DataTable5_6  ;; 0x40036000
        LDR      LR,[LR, #+0]
        LSRS     LR,LR,#+12
        ANDS     LR,LR,#0x7
        LSLS     R0,R0,LR
        MOVS     R6,R0
//  223   mult = pdb_sc_mults[(PDB0->SC & PDB_SC_MULT_MASK) >> PDB_SC_MULT_SHIFT];
        LDR.N    R0,??DataTable5_4
        LDR.W    LR,??DataTable5_6  ;; 0x40036000
        LDR      LR,[LR, #+0]
        UBFX     LR,LR,#+2,#+2
        LDRB     R0,[LR, R0]
        MOVS     R7,R0
//  224   
//  225   PDB0->CH[n].C1 |= cfg;        //根据参数配置BB模式、选择预触发输出、使能预触发
        LDR.N    R0,??DataTable5_10  ;; 0x40036010
        UXTB     R4,R4            ;; ZeroExt  R4,R4,#+24,#+24
        MOVS     LR,#+40
        MLA      R0,LR,R4,R0
        LDR      R0,[R0, #+0]
        ORRS     R0,R1,R0
        LDR.W    LR,??DataTable5_10  ;; 0x40036010
        UXTB     R4,R4            ;; ZeroExt  R4,R4,#+24,#+24
        MOVS     R8,#+40
        MLA      LR,R8,R4,LR
        STR      R0,[LR, #+0]
//  226   PDB0->CH[n].DLY[m] = (bus_clk * delay)/(prescaler * mult);    //配置ADCn的m组预触发延时值
        LDR.N    R0,??DataTable5_10  ;; 0x40036010
        UXTB     R4,R4            ;; ZeroExt  R4,R4,#+24,#+24
        MOVS     LR,#+40
        MLA      R0,LR,R4,R0
        UXTB     R5,R5            ;; ZeroExt  R5,R5,#+24,#+24
        ADDS     R0,R0,R5, LSL #+2
        UXTH     R2,R2            ;; ZeroExt  R2,R2,#+16,#+16
        MUL      LR,R2,R12
        UXTB     R6,R6            ;; ZeroExt  R6,R6,#+24,#+24
        UXTB     R7,R7            ;; ZeroExt  R7,R7,#+24,#+24
        MUL      R8,R7,R6
        UDIV     LR,LR,R8
        STR      LR,[R0, #+8]
//  227   
//  228   PDB0->SC |= PDB_SC_LDOK_MASK; //加载值
        LDR.N    R0,??DataTable5_6  ;; 0x40036000
        LDR      R0,[R0, #+0]
        ORRS     R0,R0,#0x1
        LDR.W    LR,??DataTable5_6  ;; 0x40036000
        STR      R0,[LR, #+0]
//  229   
//  230   return 1;
        MOVS     R0,#+1
??LPLD_PDB_AdcTriggerCfg_3:
        POP      {R4-R8,PC}       ;; return
//  231 }
//  232 
//  233 /*
//  234  * LPLD_PDB_DacTriggerCfg
//  235  * PDBx触发DACx模块配置函数
//  236  * 
//  237  * 参数:
//  238  *    dacx--DACx模块号
//  239  *      |__DAC0          --DAC0
//  240  *      |__DAC1          --DAC1
//  241  *    cfg--DACx触发功能配置
//  242  *      |__EXT_TRIG_EN   --使能外部触发
//  243  *      |__EINT_TRIG_EN  --使能内部间隔触发
//  244  *    int_delay--DACx间隔触发时间，单位us
//  245  *      |__0~0xFFFF      --0~4095us
//  246  *
//  247  * 输出:
//  248  *    0--配置错误
//  249  *    1--配置成功
//  250  */

        SECTION `.text`:CODE:NOROOT(1)
        THUMB
//  251 uint8 LPLD_PDB_DacTriggerCfg(DAC_Type *dacx, uint32 cfg, uint16 int_delay)
//  252 {
LPLD_PDB_DacTriggerCfg:
        PUSH     {R4-R7}
        MOVS     R3,R0
//  253   uint8 n;
//  254   uint8 prescaler, mult;
//  255   uint32 bus_clk = g_bus_clock/1000000;
        LDR.N    R0,??DataTable5_2
        LDR      R0,[R0, #+0]
        LDR.N    R7,??DataTable5_1  ;; 0xf4240
        UDIV     R7,R0,R7
//  256   
//  257   if(dacx == DAC0)
        LDR.N    R0,??DataTable5_16  ;; 0x400cc000
        CMP      R3,R0
        BNE.N    ??LPLD_PDB_DacTriggerCfg_0
//  258     n = 0;
        MOVS     R0,#+0
        MOVS     R4,R0
        B.N      ??LPLD_PDB_DacTriggerCfg_1
//  259   else if(dacx == DAC1)
??LPLD_PDB_DacTriggerCfg_0:
        LDR.N    R0,??DataTable5_17  ;; 0x400cd000
        CMP      R3,R0
        BNE.N    ??LPLD_PDB_DacTriggerCfg_2
//  260     n = 1;
        MOVS     R0,#+1
        MOVS     R4,R0
        B.N      ??LPLD_PDB_DacTriggerCfg_1
//  261   else
//  262     return 0;
??LPLD_PDB_DacTriggerCfg_2:
        MOVS     R0,#+0
        B.N      ??LPLD_PDB_DacTriggerCfg_3
//  263   
//  264   prescaler = 1<<((PDB0->SC & PDB_SC_PRESCALER_MASK) >> PDB_SC_PRESCALER_SHIFT);
??LPLD_PDB_DacTriggerCfg_1:
        MOVS     R0,#+1
        LDR.W    R12,??DataTable5_6  ;; 0x40036000
        LDR      R12,[R12, #+0]
        LSRS     R12,R12,#+12
        ANDS     R12,R12,#0x7
        LSLS     R0,R0,R12
        MOVS     R5,R0
//  265   mult = pdb_sc_mults[(PDB0->SC & PDB_SC_MULT_MASK) >> PDB_SC_MULT_SHIFT];
        LDR.N    R0,??DataTable5_4
        LDR.W    R12,??DataTable5_6  ;; 0x40036000
        LDR      R12,[R12, #+0]
        UBFX     R12,R12,#+2,#+2
        LDRB     R0,[R12, R0]
        MOVS     R6,R0
//  266   
//  267   PDB0->DAC[n].INTC |= cfg;     //配置使能外部触发或者内部间隔触发
        LDR.N    R0,??DataTable5_12  ;; 0x40036150
        UXTB     R4,R4            ;; ZeroExt  R4,R4,#+24,#+24
        LDR      R0,[R0, R4, LSL #+3]
        ORRS     R0,R1,R0
        LDR.W    R12,??DataTable5_12  ;; 0x40036150
        UXTB     R4,R4            ;; ZeroExt  R4,R4,#+24,#+24
        STR      R0,[R12, R4, LSL #+3]
//  268   PDB0->DAC[n].INT = (bus_clk * int_delay)/(prescaler * mult);    //配置DACn的间隔触发时间
        UXTH     R2,R2            ;; ZeroExt  R2,R2,#+16,#+16
        MUL      R0,R2,R7
        UXTB     R5,R5            ;; ZeroExt  R5,R5,#+24,#+24
        UXTB     R6,R6            ;; ZeroExt  R6,R6,#+24,#+24
        MUL      R12,R6,R5
        UDIV     R0,R0,R12
        LDR.W    R12,??DataTable5_12  ;; 0x40036150
        UXTB     R4,R4            ;; ZeroExt  R4,R4,#+24,#+24
        ADDS     R12,R12,R4, LSL #+3
        STR      R0,[R12, #+4]
//  269   
//  270   PDB0->SC |= PDB_SC_LDOK_MASK; //加载值
        LDR.N    R0,??DataTable5_6  ;; 0x40036000
        LDR      R0,[R0, #+0]
        ORRS     R0,R0,#0x1
        LDR.W    R12,??DataTable5_6  ;; 0x40036000
        STR      R0,[R12, #+0]
//  271   
//  272   return 1;
        MOVS     R0,#+1
??LPLD_PDB_DacTriggerCfg_3:
        POP      {R4-R7}
        BX       LR               ;; return
//  273 }
//  274 
//  275 /*
//  276  * PDB中断处理函数
//  277  * 与启动文件startup_K60.s中的中断向量表关联
//  278  * 用户无需修改，程序自动进入对应通道中断函数
//  279  */

        SECTION `.text`:CODE:NOROOT(1)
        THUMB
//  280 void PDB_IRQHandler(void)
//  281 {
PDB_IRQHandler:
        PUSH     {R7,LR}
//  282 #if (UCOS_II > 0u)
//  283   OS_CPU_SR  cpu_sr = 0u;
//  284   OS_ENTER_CRITICAL(); //告知系统此时已经进入了中断服务子函数
//  285   OSIntEnter();
//  286   OS_EXIT_CRITICAL();
//  287 #endif
//  288   
//  289   //是否为PDB中断
//  290   if((PDB0->SC & PDB_SC_PDBIF_MASK) && (PDB0->SC & PDB_SC_PDBIE_MASK))
        LDR.N    R0,??DataTable5_6  ;; 0x40036000
        LDR      R0,[R0, #+0]
        LSLS     R0,R0,#+25
        BPL.N    ??PDB_IRQHandler_0
        LDR.N    R0,??DataTable5_6  ;; 0x40036000
        LDR      R0,[R0, #+0]
        LSLS     R0,R0,#+26
        BPL.N    ??PDB_IRQHandler_0
//  291   {
//  292     //调用用户自定义中断服务
//  293     PDB_ISR[0]();  
        LDR.N    R0,??DataTable5_7
        LDR      R0,[R0, #+0]
        BLX      R0
//  294     //清除中断标志位  
//  295     PDB0->SC &= ~PDB_SC_PDBIF_MASK;
        LDR.N    R0,??DataTable5_6  ;; 0x40036000
        LDR      R0,[R0, #+0]
        BICS     R0,R0,#0x40
        LDR.N    R1,??DataTable5_6  ;; 0x40036000
        STR      R0,[R1, #+0]
//  296   }
//  297   
//  298   //是否为PDB序列错误中断 CH0
//  299   if((PDB0->CH[0].S & PDB_S_ERR(1)) && (PDB0->SC & PDB_SC_PDBEIE_MASK))
??PDB_IRQHandler_0:
        LDR.N    R0,??DataTable5_18  ;; 0x40036014
        LDR      R0,[R0, #+0]
        LSLS     R0,R0,#+31
        BPL.N    ??PDB_IRQHandler_1
        LDR.N    R0,??DataTable5_6  ;; 0x40036000
        LDR      R0,[R0, #+0]
        LSLS     R0,R0,#+14
        BPL.N    ??PDB_IRQHandler_1
//  300   {
//  301     //调用用户自定义中断服务
//  302     PDB_SE_ISR[0]();  
        LDR.N    R0,??DataTable5_8
        LDR      R0,[R0, #+0]
        BLX      R0
//  303     PDB0->CH[0].S |= PDB_S_ERR(1);
        LDR.N    R0,??DataTable5_18  ;; 0x40036014
        LDR      R0,[R0, #+0]
        ORRS     R0,R0,#0x1
        LDR.N    R1,??DataTable5_18  ;; 0x40036014
        STR      R0,[R1, #+0]
//  304   }
//  305   
//  306   //是否为PDB序列错误中断 CH1
//  307   if((PDB0->CH[1].S & PDB_S_ERR(2)) && (PDB0->SC & PDB_SC_PDBEIE_MASK))
??PDB_IRQHandler_1:
        LDR.N    R0,??DataTable5_19  ;; 0x4003603c
        LDR      R0,[R0, #+0]
        LSLS     R0,R0,#+30
        BPL.N    ??PDB_IRQHandler_2
        LDR.N    R0,??DataTable5_6  ;; 0x40036000
        LDR      R0,[R0, #+0]
        LSLS     R0,R0,#+14
        BPL.N    ??PDB_IRQHandler_2
//  308   {
//  309     //调用用户自定义中断服务
//  310     PDB_SE_ISR[0]();  
        LDR.N    R0,??DataTable5_8
        LDR      R0,[R0, #+0]
        BLX      R0
//  311     PDB0->CH[1].S |= PDB_S_ERR(2);
        LDR.N    R0,??DataTable5_19  ;; 0x4003603c
        LDR      R0,[R0, #+0]
        ORRS     R0,R0,#0x2
        LDR.N    R1,??DataTable5_19  ;; 0x4003603c
        STR      R0,[R1, #+0]
//  312   }
//  313   
//  314 #if (UCOS_II > 0u)
//  315   OSIntExit();          //告知系统此时即将离开中断服务子函数
//  316 #endif
//  317 }
??PDB_IRQHandler_2:
        POP      {R0,PC}          ;; return

        SECTION `.text`:CODE:NOROOT(2)
        SECTION_TYPE SHT_PROGBITS, 0
        DATA
??DataTable5:
        DC32     0xe000e180

        SECTION `.text`:CODE:NOROOT(2)
        SECTION_TYPE SHT_PROGBITS, 0
        DATA
??DataTable5_1:
        DC32     0xf4240

        SECTION `.text`:CODE:NOROOT(2)
        SECTION_TYPE SHT_PROGBITS, 0
        DATA
??DataTable5_2:
        DC32     g_bus_clock

        SECTION `.text`:CODE:NOROOT(2)
        SECTION_TYPE SHT_PROGBITS, 0
        DATA
??DataTable5_3:
        DC32     ?_0

        SECTION `.text`:CODE:NOROOT(2)
        SECTION_TYPE SHT_PROGBITS, 0
        DATA
??DataTable5_4:
        DC32     pdb_sc_mults

        SECTION `.text`:CODE:NOROOT(2)
        SECTION_TYPE SHT_PROGBITS, 0
        DATA
??DataTable5_5:
        DC32     0x4004803c

        SECTION `.text`:CODE:NOROOT(2)
        SECTION_TYPE SHT_PROGBITS, 0
        DATA
??DataTable5_6:
        DC32     0x40036000

        SECTION `.text`:CODE:NOROOT(2)
        SECTION_TYPE SHT_PROGBITS, 0
        DATA
??DataTable5_7:
        DC32     PDB_ISR

        SECTION `.text`:CODE:NOROOT(2)
        SECTION_TYPE SHT_PROGBITS, 0
        DATA
??DataTable5_8:
        DC32     PDB_SE_ISR

        SECTION `.text`:CODE:NOROOT(2)
        SECTION_TYPE SHT_PROGBITS, 0
        DATA
??DataTable5_9:
        DC32     0x4003600c

        SECTION `.text`:CODE:NOROOT(2)
        SECTION_TYPE SHT_PROGBITS, 0
        DATA
??DataTable5_10:
        DC32     0x40036010

        SECTION `.text`:CODE:NOROOT(2)
        SECTION_TYPE SHT_PROGBITS, 0
        DATA
??DataTable5_11:
        DC32     0x40036038

        SECTION `.text`:CODE:NOROOT(2)
        SECTION_TYPE SHT_PROGBITS, 0
        DATA
??DataTable5_12:
        DC32     0x40036150

        SECTION `.text`:CODE:NOROOT(2)
        SECTION_TYPE SHT_PROGBITS, 0
        DATA
??DataTable5_13:
        DC32     0x40036158

        SECTION `.text`:CODE:NOROOT(2)
        SECTION_TYPE SHT_PROGBITS, 0
        DATA
??DataTable5_14:
        DC32     0x4003b000

        SECTION `.text`:CODE:NOROOT(2)
        SECTION_TYPE SHT_PROGBITS, 0
        DATA
??DataTable5_15:
        DC32     0x400bb000

        SECTION `.text`:CODE:NOROOT(2)
        SECTION_TYPE SHT_PROGBITS, 0
        DATA
??DataTable5_16:
        DC32     0x400cc000

        SECTION `.text`:CODE:NOROOT(2)
        SECTION_TYPE SHT_PROGBITS, 0
        DATA
??DataTable5_17:
        DC32     0x400cd000

        SECTION `.text`:CODE:NOROOT(2)
        SECTION_TYPE SHT_PROGBITS, 0
        DATA
??DataTable5_18:
        DC32     0x40036014

        SECTION `.text`:CODE:NOROOT(2)
        SECTION_TYPE SHT_PROGBITS, 0
        DATA
??DataTable5_19:
        DC32     0x4003603c

        SECTION `.iar_vfe_header`:DATA:NOALLOC:NOROOT(2)
        SECTION_TYPE SHT_PROGBITS, 0
        DATA
        DC32 0

        SECTION __DLIB_PERTHREAD:DATA:REORDER:NOROOT(0)
        SECTION_TYPE SHT_PROGBITS, 0

        SECTION __DLIB_PERTHREAD_init:DATA:REORDER:NOROOT(0)
        SECTION_TYPE SHT_PROGBITS, 0

        END
// 
//     8 bytes in section .bss
//    64 bytes in section .rodata
// 1 174 bytes in section .text
// 
// 1 174 bytes of CODE  memory
//    64 bytes of CONST memory
//     8 bytes of DATA  memory
//
//Errors: none
//Warnings: none
