///////////////////////////////////////////////////////////////////////////////
//
// IAR ANSI C/C++ Compiler V7.20.2.7424/W32 for ARM       14/Oct/2015  16:44:56
// Copyright 1999-2014 IAR Systems AB.
//
//    Cpu mode     =  thumb
//    Endian       =  little
//    Source file  =  
//        X:\whutddk\·ÉË¼¿¨¶û\LPLDV3.1\LPLD_OSKinetis_V3\project\freescale_cup1.0\app\BSP\S3010.c
//    Command line =  
//        X:\whutddk\·ÉË¼¿¨¶û\LPLDV3.1\LPLD_OSKinetis_V3\project\freescale_cup1.0\app\BSP\S3010.c
//        -D LPLD_K60 -D USE_K60DZ10 -lCN
//        X:\whutddk\·ÉË¼¿¨¶û\LPLDV3.1\LPLD_OSKinetis_V3\project\freescale_cup1.0\iar\FLASH\List\
//        -lB
//        X:\whutddk\·ÉË¼¿¨¶û\LPLDV3.1\LPLD_OSKinetis_V3\project\freescale_cup1.0\iar\FLASH\List\
//        -o
//        X:\whutddk\·ÉË¼¿¨¶û\LPLDV3.1\LPLD_OSKinetis_V3\project\freescale_cup1.0\iar\FLASH\Obj\
//        --no_cse --no_unroll --no_inline --no_code_motion --no_tbaa
//        --no_clustering --no_scheduling --debug --endian=little
//        --cpu=Cortex-M4 -e --fpu=None --dlib_config "D:\Program Files
//        (x86)\IAR Systems\Embedded Workbench
//        7.0\arm\INC\c\DLib_Config_Normal.h" -I
//        X:\whutddk\·ÉË¼¿¨¶û\LPLDV3.1\LPLD_OSKinetis_V3\project\freescale_cup1.0\iar\..\app\
//        -I
//        X:\whutddk\·ÉË¼¿¨¶û\LPLDV3.1\LPLD_OSKinetis_V3\project\freescale_cup1.0\iar\..\app\MAIN\
//        -I
//        X:\whutddk\·ÉË¼¿¨¶û\LPLDV3.1\LPLD_OSKinetis_V3\project\freescale_cup1.0\iar\..\app\BSP\
//        -I
//        X:\whutddk\·ÉË¼¿¨¶û\LPLDV3.1\LPLD_OSKinetis_V3\project\freescale_cup1.0\iar\..\app\CTL\
//        -I
//        X:\whutddk\·ÉË¼¿¨¶û\LPLDV3.1\LPLD_OSKinetis_V3\project\freescale_cup1.0\iar\..\app\IMG\
//        -I
//        X:\whutddk\·ÉË¼¿¨¶û\LPLDV3.1\LPLD_OSKinetis_V3\project\freescale_cup1.0\iar\..\app\ITAC\
//        -I
//        X:\whutddk\·ÉË¼¿¨¶û\LPLDV3.1\LPLD_OSKinetis_V3\project\freescale_cup1.0\iar\..\..\..\lib\CPU\
//        -I
//        X:\whutddk\·ÉË¼¿¨¶û\LPLDV3.1\LPLD_OSKinetis_V3\project\freescale_cup1.0\iar\..\..\..\lib\common\
//        -I
//        X:\whutddk\·ÉË¼¿¨¶û\LPLDV3.1\LPLD_OSKinetis_V3\project\freescale_cup1.0\iar\..\..\..\lib\LPLD\
//        -I
//        X:\whutddk\·ÉË¼¿¨¶û\LPLDV3.1\LPLD_OSKinetis_V3\project\freescale_cup1.0\iar\..\..\..\lib\LPLD\HW\
//        -I
//        X:\whutddk\·ÉË¼¿¨¶û\LPLDV3.1\LPLD_OSKinetis_V3\project\freescale_cup1.0\iar\..\..\..\lib\LPLD\DEV\
//        -I
//        X:\whutddk\·ÉË¼¿¨¶û\LPLDV3.1\LPLD_OSKinetis_V3\project\freescale_cup1.0\iar\..\..\..\lib\LPLD\FUNC\
//        -I
//        X:\whutddk\·ÉË¼¿¨¶û\LPLDV3.1\LPLD_OSKinetis_V3\project\freescale_cup1.0\iar\..\..\..\lib\uCOS-II\Ports\
//        -I
//        X:\whutddk\·ÉË¼¿¨¶û\LPLDV3.1\LPLD_OSKinetis_V3\project\freescale_cup1.0\iar\..\..\..\lib\uCOS-II\Source\
//        -I
//        X:\whutddk\·ÉË¼¿¨¶û\LPLDV3.1\LPLD_OSKinetis_V3\project\freescale_cup1.0\iar\..\..\..\lib\FatFs\
//        -I
//        X:\whutddk\·ÉË¼¿¨¶û\LPLDV3.1\LPLD_OSKinetis_V3\project\freescale_cup1.0\iar\..\..\..\lib\FatFs\option\
//        -I
//        X:\whutddk\·ÉË¼¿¨¶û\LPLDV3.1\LPLD_OSKinetis_V3\project\freescale_cup1.0\iar\..\..\..\lib\USB\common\
//        -I
//        X:\whutddk\·ÉË¼¿¨¶û\LPLDV3.1\LPLD_OSKinetis_V3\project\freescale_cup1.0\iar\..\..\..\lib\USB\driver\
//        -I
//        X:\whutddk\·ÉË¼¿¨¶û\LPLDV3.1\LPLD_OSKinetis_V3\project\freescale_cup1.0\iar\..\..\..\lib\USB\descriptor\
//        -I
//        X:\whutddk\·ÉË¼¿¨¶û\LPLDV3.1\LPLD_OSKinetis_V3\project\freescale_cup1.0\iar\..\..\..\lib\USB\class\
//        -On -I "D:\Program Files (x86)\IAR Systems\Embedded Workbench
//        7.0\arm\CMSIS\Include\" -D ARM_MATH_CM4
//    List file    =  
//        X:\whutddk\·ÉË¼¿¨¶û\LPLDV3.1\LPLD_OSKinetis_V3\project\freescale_cup1.0\iar\FLASH\List\S3010.s
//
///////////////////////////////////////////////////////////////////////////////

        #define SHT_PROGBITS 0x1

        EXTERN LPLD_GPIO_Init
        EXTERN LPLD_GPIO_Output_b
        EXTERN __aeabi_memcpy4

        PUBLIC S3010_cnt
        PUBLIC S3010_init
        PUBLIC S3010_inittype
        PUBLIC S3010_isr
        PUBLIC S3010_set

// X:\whutddk\·ÉË¼¿¨¶û\LPLDV3.1\LPLD_OSKinetis_V3\project\freescale_cup1.0\app\BSP\S3010.c
//    1 #include "include.h"
//    2 

        SECTION `.bss`:DATA:REORDER:NOROOT(2)
//    3 GPIO_InitTypeDef S3010_inittype;
S3010_inittype:
        DS8 20
//    4 

        SECTION `.text`:CODE:NOROOT(1)
        THUMB
//    5 void S3010_init()
//    6 {
S3010_init:
        PUSH     {R7,LR}
//    7   S3010_inittype.GPIO_PTx = PTE; //S3010
        LDR.N    R0,??DataTable1  ;; 0x400ff100
        LDR.N    R1,??DataTable1_1
        STR      R0,[R1, #+0]
//    8   S3010_inittype.GPIO_Pins = GPIO_Pin6 ;
        MOVS     R0,#+64
        LDR.N    R1,??DataTable1_1
        STR      R0,[R1, #+4]
//    9   S3010_inittype.GPIO_Dir = DIR_OUTPUT;
        MOVS     R0,#+1
        LDR.N    R1,??DataTable1_1
        STRB     R0,[R1, #+12]
//   10   S3010_inittype.GPIO_Output = OUTPUT_H;
        MOVS     R0,#+1
        LDR.N    R1,??DataTable1_1
        STRB     R0,[R1, #+13]
//   11   S3010_inittype.GPIO_PinControl = IRQC_DIS; //¸ßÊä³öÄ£Ê½ £¬ÍÆÍìÊä³ö£¿
        MOVS     R0,#+0
        LDR.N    R1,??DataTable1_1
        STR      R0,[R1, #+8]
//   12   LPLD_GPIO_Init(S3010_inittype);
        LDR.N    R1,??DataTable1_1
        SUB      SP,SP,#+16
        MOV      R0,SP
        MOVS     R2,#+20
        BL       __aeabi_memcpy4
        POP      {R0-R3}
        BL       LPLD_GPIO_Init
//   13 }
        POP      {R0,PC}          ;; return
//   14 
//   15 

        SECTION `.bss`:DATA:REORDER:NOROOT(1)
//   16 uint16 S3010_cnt = 0;     //x* 0.02ms
S3010_cnt:
        DS8 2

        SECTION `.data`:DATA:REORDER:NOROOT(1)
//   17 uint16 S3010_set = 79;   //
S3010_set:
        DATA
        DC16 79
//   18 
//   19 #define S3010_FRE  500     //100hz

        SECTION `.text`:CODE:NOROOT(1)
        THUMB
//   20 void S3010_isr()
//   21 {
S3010_isr:
        PUSH     {R7,LR}
//   22   S3010_cnt ++ ;
        LDR.N    R0,??DataTable1_2
        LDRH     R0,[R0, #+0]
        ADDS     R0,R0,#+1
        LDR.N    R1,??DataTable1_2
        STRH     R0,[R1, #+0]
//   23   if ( S3010_cnt == S3010_set )
        LDR.N    R0,??DataTable1_2
        LDRH     R0,[R0, #+0]
        LDR.N    R1,??DataTable1_3
        LDRH     R1,[R1, #+0]
        CMP      R0,R1
        BNE.N    ??S3010_isr_0
//   24   {
//   25     LPLD_GPIO_Output_b(PTE, 6 ,0);//low
        MOVS     R2,#+0
        MOVS     R1,#+6
        LDR.N    R0,??DataTable1  ;; 0x400ff100
        BL       LPLD_GPIO_Output_b
        B.N      ??S3010_isr_1
//   26   }
//   27   else if ( S3010_cnt == S3010_FRE )
??S3010_isr_0:
        LDR.N    R0,??DataTable1_2
        LDRH     R0,[R0, #+0]
        CMP      R0,#+500
        BNE.N    ??S3010_isr_1
//   28   {
//   29     S3010_cnt = 0;
        MOVS     R0,#+0
        LDR.N    R1,??DataTable1_2
        STRH     R0,[R1, #+0]
//   30     LPLD_GPIO_Output_b(PTE, 6 ,1);//HIGH
        MOVS     R2,#+1
        MOVS     R1,#+6
        LDR.N    R0,??DataTable1  ;; 0x400ff100
        BL       LPLD_GPIO_Output_b
//   31   }
//   32 }
??S3010_isr_1:
        POP      {R0,PC}          ;; return

        SECTION `.text`:CODE:NOROOT(2)
        SECTION_TYPE SHT_PROGBITS, 0
        DATA
??DataTable1:
        DC32     0x400ff100

        SECTION `.text`:CODE:NOROOT(2)
        SECTION_TYPE SHT_PROGBITS, 0
        DATA
??DataTable1_1:
        DC32     S3010_inittype

        SECTION `.text`:CODE:NOROOT(2)
        SECTION_TYPE SHT_PROGBITS, 0
        DATA
??DataTable1_2:
        DC32     S3010_cnt

        SECTION `.text`:CODE:NOROOT(2)
        SECTION_TYPE SHT_PROGBITS, 0
        DATA
??DataTable1_3:
        DC32     S3010_set

        SECTION `.iar_vfe_header`:DATA:NOALLOC:NOROOT(2)
        SECTION_TYPE SHT_PROGBITS, 0
        DATA
        DC32 0

        SECTION __DLIB_PERTHREAD:DATA:REORDER:NOROOT(0)
        SECTION_TYPE SHT_PROGBITS, 0

        SECTION __DLIB_PERTHREAD_init:DATA:REORDER:NOROOT(0)
        SECTION_TYPE SHT_PROGBITS, 0

        END
// 
//  22 bytes in section .bss
//   2 bytes in section .data
// 132 bytes in section .text
// 
// 132 bytes of CODE memory
//  24 bytes of DATA memory
//
//Errors: none
//Warnings: none
