###############################################################################
#
# IAR ELF Linker V7.20.2.7424/W32 for ARM                 08/Aug/2016  13:03:37
# Copyright 2007-2014 IAR Systems AB.
#
#    Output file  =  
#        C:\百度云同步盘\比赛代码\LPLD_OSKinetis_V3\launch\NXP_(golden_cyprinoid)
#        冲击华南赛 1车\iar\FLASH\Exe\NXP_(golden_cyprinoid)_K60.out
#    Map file     =  
#        C:\百度云同步盘\比赛代码\LPLD_OSKinetis_V3\launch\NXP_(golden_cyprinoid)
#        冲击华南赛 1车\iar\FLASH\List\NXP_(golden_cyprinoid)_K60.map
#    Command line =  
#        "C:\百度云同步盘\比赛代码\LPLD_OSKinetis_V3\launch\NXP_(golden_cyprinoid)
#        冲击华南赛 1车\iar\FLASH\Obj\alloc.o"
#        "C:\百度云同步盘\比赛代码\LPLD_OSKinetis_V3\launch\NXP_(golden_cyprinoid)
#        冲击华南赛 1车\iar\FLASH\Obj\assert.o"
#        "C:\百度云同步盘\比赛代码\LPLD_OSKinetis_V3\launch\NXP_(golden_cyprinoid)
#        冲击华南赛 1车\iar\FLASH\Obj\bz_led.o"
#        "C:\百度云同步盘\比赛代码\LPLD_OSKinetis_V3\launch\NXP_(golden_cyprinoid)
#        冲击华南赛 1车\iar\FLASH\Obj\control.o"
#        "C:\百度云同步盘\比赛代码\LPLD_OSKinetis_V3\launch\NXP_(golden_cyprinoid)
#        冲击华南赛 1车\iar\FLASH\Obj\debug.o"
#        "C:\百度云同步盘\比赛代码\LPLD_OSKinetis_V3\launch\NXP_(golden_cyprinoid)
#        冲击华南赛 1车\iar\FLASH\Obj\del_sensor.o"
#        "C:\百度云同步盘\比赛代码\LPLD_OSKinetis_V3\launch\NXP_(golden_cyprinoid)
#        冲击华南赛 1车\iar\FLASH\Obj\DEV_LCD.o"
#        "C:\百度云同步盘\比赛代码\LPLD_OSKinetis_V3\launch\NXP_(golden_cyprinoid)
#        冲击华南赛 1车\iar\FLASH\Obj\dirctl.o"
#        "C:\百度云同步盘\比赛代码\LPLD_OSKinetis_V3\launch\NXP_(golden_cyprinoid)
#        冲击华南赛 1车\iar\FLASH\Obj\freecars.o"
#        "C:\百度云同步盘\比赛代码\LPLD_OSKinetis_V3\launch\NXP_(golden_cyprinoid)
#        冲击华南赛 1车\iar\FLASH\Obj\FTM.o"
#        "C:\百度云同步盘\比赛代码\LPLD_OSKinetis_V3\launch\NXP_(golden_cyprinoid)
#        冲击华南赛 1车\iar\FLASH\Obj\GUI.o"
#        "C:\百度云同步盘\比赛代码\LPLD_OSKinetis_V3\launch\NXP_(golden_cyprinoid)
#        冲击华南赛 1车\iar\FLASH\Obj\HW_ADC.o"
#        "C:\百度云同步盘\比赛代码\LPLD_OSKinetis_V3\launch\NXP_(golden_cyprinoid)
#        冲击华南赛 1车\iar\FLASH\Obj\HW_CAN.o"
#        "C:\百度云同步盘\比赛代码\LPLD_OSKinetis_V3\launch\NXP_(golden_cyprinoid)
#        冲击华南赛 1车\iar\FLASH\Obj\HW_DAC.o"
#        "C:\百度云同步盘\比赛代码\LPLD_OSKinetis_V3\launch\NXP_(golden_cyprinoid)
#        冲击华南赛 1车\iar\FLASH\Obj\HW_DMA.o"
#        "C:\百度云同步盘\比赛代码\LPLD_OSKinetis_V3\launch\NXP_(golden_cyprinoid)
#        冲击华南赛 1车\iar\FLASH\Obj\HW_ENET.o"
#        "C:\百度云同步盘\比赛代码\LPLD_OSKinetis_V3\launch\NXP_(golden_cyprinoid)
#        冲击华南赛 1车\iar\FLASH\Obj\HW_FLASH.o"
#        "C:\百度云同步盘\比赛代码\LPLD_OSKinetis_V3\launch\NXP_(golden_cyprinoid)
#        冲击华南赛 1车\iar\FLASH\Obj\HW_FLEXBUS.o"
#        "C:\百度云同步盘\比赛代码\LPLD_OSKinetis_V3\launch\NXP_(golden_cyprinoid)
#        冲击华南赛 1车\iar\FLASH\Obj\HW_FTM.o"
#        "C:\百度云同步盘\比赛代码\LPLD_OSKinetis_V3\launch\NXP_(golden_cyprinoid)
#        冲击华南赛 1车\iar\FLASH\Obj\HW_GPIO.o"
#        "C:\百度云同步盘\比赛代码\LPLD_OSKinetis_V3\launch\NXP_(golden_cyprinoid)
#        冲击华南赛 1车\iar\FLASH\Obj\HW_I2C.o"
#        "C:\百度云同步盘\比赛代码\LPLD_OSKinetis_V3\launch\NXP_(golden_cyprinoid)
#        冲击华南赛 1车\iar\FLASH\Obj\HW_LPTMR.o"
#        "C:\百度云同步盘\比赛代码\LPLD_OSKinetis_V3\launch\NXP_(golden_cyprinoid)
#        冲击华南赛 1车\iar\FLASH\Obj\HW_MCG.o"
#        "C:\百度云同步盘\比赛代码\LPLD_OSKinetis_V3\launch\NXP_(golden_cyprinoid)
#        冲击华南赛 1车\iar\FLASH\Obj\HW_NVIC.o"
#        "C:\百度云同步盘\比赛代码\LPLD_OSKinetis_V3\launch\NXP_(golden_cyprinoid)
#        冲击华南赛 1车\iar\FLASH\Obj\HW_PDB.o"
#        "C:\百度云同步盘\比赛代码\LPLD_OSKinetis_V3\launch\NXP_(golden_cyprinoid)
#        冲击华南赛 1车\iar\FLASH\Obj\HW_PIT.o"
#        "C:\百度云同步盘\比赛代码\LPLD_OSKinetis_V3\launch\NXP_(golden_cyprinoid)
#        冲击华南赛 1车\iar\FLASH\Obj\HW_RTC.o"
#        "C:\百度云同步盘\比赛代码\LPLD_OSKinetis_V3\launch\NXP_(golden_cyprinoid)
#        冲击华南赛 1车\iar\FLASH\Obj\HW_SDHC.o"
#        "C:\百度云同步盘\比赛代码\LPLD_OSKinetis_V3\launch\NXP_(golden_cyprinoid)
#        冲击华南赛 1车\iar\FLASH\Obj\HW_SPI.o"
#        "C:\百度云同步盘\比赛代码\LPLD_OSKinetis_V3\launch\NXP_(golden_cyprinoid)
#        冲击华南赛 1车\iar\FLASH\Obj\HW_SYSTICK.o"
#        "C:\百度云同步盘\比赛代码\LPLD_OSKinetis_V3\launch\NXP_(golden_cyprinoid)
#        冲击华南赛 1车\iar\FLASH\Obj\HW_TSI.o"
#        "C:\百度云同步盘\比赛代码\LPLD_OSKinetis_V3\launch\NXP_(golden_cyprinoid)
#        冲击华南赛 1车\iar\FLASH\Obj\HW_UART.o"
#        "C:\百度云同步盘\比赛代码\LPLD_OSKinetis_V3\launch\NXP_(golden_cyprinoid)
#        冲击华南赛 1车\iar\FLASH\Obj\HW_USB.o"
#        "C:\百度云同步盘\比赛代码\LPLD_OSKinetis_V3\launch\NXP_(golden_cyprinoid)
#        冲击华南赛 1车\iar\FLASH\Obj\HW_WDOG.o"
#        "C:\百度云同步盘\比赛代码\LPLD_OSKinetis_V3\launch\NXP_(golden_cyprinoid)
#        冲击华南赛 1车\iar\FLASH\Obj\i2c.o"
#        "C:\百度云同步盘\比赛代码\LPLD_OSKinetis_V3\launch\NXP_(golden_cyprinoid)
#        冲击华南赛 1车\iar\FLASH\Obj\io.o"
#        "C:\百度云同步盘\比赛代码\LPLD_OSKinetis_V3\launch\NXP_(golden_cyprinoid)
#        冲击华南赛 1车\iar\FLASH\Obj\key.o"
#        "C:\百度云同步盘\比赛代码\LPLD_OSKinetis_V3\launch\NXP_(golden_cyprinoid)
#        冲击华南赛 1车\iar\FLASH\Obj\LDC1614.o"
#        "C:\百度云同步盘\比赛代码\LPLD_OSKinetis_V3\launch\NXP_(golden_cyprinoid)
#        冲击华南赛 1车\iar\FLASH\Obj\main.o"
#        "C:\百度云同步盘\比赛代码\LPLD_OSKinetis_V3\launch\NXP_(golden_cyprinoid)
#        冲击华南赛 1车\iar\FLASH\Obj\motto.o"
#        "C:\百度云同步盘\比赛代码\LPLD_OSKinetis_V3\launch\NXP_(golden_cyprinoid)
#        冲击华南赛 1车\iar\FLASH\Obj\nvic.o"
#        "C:\百度云同步盘\比赛代码\LPLD_OSKinetis_V3\launch\NXP_(golden_cyprinoid)
#        冲击华南赛 1车\iar\FLASH\Obj\OLED.o"
#        "C:\百度云同步盘\比赛代码\LPLD_OSKinetis_V3\launch\NXP_(golden_cyprinoid)
#        冲击华南赛 1车\iar\FLASH\Obj\PIT.o"
#        "C:\百度云同步盘\比赛代码\LPLD_OSKinetis_V3\launch\NXP_(golden_cyprinoid)
#        冲击华南赛 1车\iar\FLASH\Obj\printf.o"
#        "C:\百度云同步盘\比赛代码\LPLD_OSKinetis_V3\launch\NXP_(golden_cyprinoid)
#        冲击华南赛 1车\iar\FLASH\Obj\queue.o"
#        "C:\百度云同步盘\比赛代码\LPLD_OSKinetis_V3\launch\NXP_(golden_cyprinoid)
#        冲击华南赛 1车\iar\FLASH\Obj\relocate.o"
#        "C:\百度云同步盘\比赛代码\LPLD_OSKinetis_V3\launch\NXP_(golden_cyprinoid)
#        冲击华南赛 1车\iar\FLASH\Obj\star.o"
#        "C:\百度云同步盘\比赛代码\LPLD_OSKinetis_V3\launch\NXP_(golden_cyprinoid)
#        冲击华南赛 1车\iar\FLASH\Obj\startup_K60.o"
#        "C:\百度云同步盘\比赛代码\LPLD_OSKinetis_V3\launch\NXP_(golden_cyprinoid)
#        冲击华南赛 1车\iar\FLASH\Obj\stdlib.o"
#        "C:\百度云同步盘\比赛代码\LPLD_OSKinetis_V3\launch\NXP_(golden_cyprinoid)
#        冲击华南赛 1车\iar\FLASH\Obj\sysinit.o"
#        "C:\百度云同步盘\比赛代码\LPLD_OSKinetis_V3\launch\NXP_(golden_cyprinoid)
#        冲击华南赛 1车\iar\FLASH\Obj\system_MK60DZ10.o"
#        "C:\百度云同步盘\比赛代码\LPLD_OSKinetis_V3\launch\NXP_(golden_cyprinoid)
#        冲击华南赛 1车\iar\FLASH\Obj\UART.o"
#        "C:\百度云同步盘\比赛代码\LPLD_OSKinetis_V3\launch\NXP_(golden_cyprinoid)
#        冲击华南赛 1车\iar\FLASH\Obj\uif.o" --redirect _Printf=_PrintfFull
#        --redirect _Scanf=_ScanfFull -o
#        "C:\百度云同步盘\比赛代码\LPLD_OSKinetis_V3\launch\NXP_(golden_cyprinoid)
#        冲击华南赛 1车\iar\FLASH\Exe\NXP_(golden_cyprinoid)_K60.out" --map
#        "C:\百度云同步盘\比赛代码\LPLD_OSKinetis_V3\launch\NXP_(golden_cyprinoid)
#        冲击华南赛 1车\iar\FLASH\List\NXP_(golden_cyprinoid)_K60.map" --config
#        C:\百度云同步盘\比赛代码\LPLD_OSKinetis_V3\lib\iar_config_files\256KB_Pflash_256KB_Dflash.icf
#        --semihosting --entry __iar_program_start "C:\Program Files (x86)\IAR
#        Systems\Embedded Workbench 7.0\arm\CMSIS\Lib\IAR\iar_cortexM4l_math.a"
#        --merge_duplicate_sections --vfe
#
###############################################################################

*******************************************************************************
*** RUNTIME MODEL ATTRIBUTES
***

CppFlavor       = *
__SystemLibrary = DLib


*******************************************************************************
*** PLACEMENT SUMMARY
***

"A1":  place at 0x00000000 { ro section .intvec };
"A2":  place at 0x00000410 { ro section .noinit };
"P1":  place in [from         0x00000000
                 to           0x00040000
                 repeat       2
                 displacement 0x10000000] { ro, block CodeRelocate };
"P2":  place in [from 0x1fff8410 to 0x20008000] {
          rw, block CodeRelocateRam, block CSTACK, block HEAP };

  Section              Kind        Address    Size  Object
  -------              ----        -------    ----  ------
"A1":                                        0x400
  .intvec              ro code  0x00000000   0x400  startup_K60.o [1]
                              - 0x00000400   0x400

"P1", part 1 of 2:                             0x0
  .rodata              const    0x00000400     0x0  zero_init3.o [5]

"A2":                                         0x14
  .noinit              ro code  0x00000410    0x10  startup_K60.o [1]
  .noinit              ro code  0x00000420     0x4  startup_K60.o [1]
                              - 0x00000424    0x14

"P1", part 2 of 2:                          0x818c
  .text                ro code  0x00000424   0xca0  del_sensor.o [1]
  .text                ro code  0x000010c4    0x6c  HW_LPTMR.o [1]
  .text                ro code  0x00001130   0x194  LDC1614.o [1]
  .text                ro code  0x000012c4   0x1cc  HW_GPIO.o [1]
  .text                ro code  0x00001490   0x39c  freecars.o [1]
  .text                ro code  0x0000182c    0x2c  I32ToDbl.o [4]
  .text                ro code  0x00001858   0x1a2  DblMul.o [4]
  .text                ro code  0x000019fa    0x22  zero_init3.o [5]
  .text                ro code  0x00001a1c   0x246  DblDiv.o [4]
  .text                ro code  0x00001c64    0x4c  DblToI32.o [4]
  .text                ro code  0x00001cb0    0xe8  DblAdd.o [4]
  .text                ro code  0x00001d98   0x180  DblSub.o [4]
  .text                ro code  0x00001f18   0x2a4  i2c.o [1]
  .text                ro code  0x000021bc    0x18  assert.o [1]
  .text                ro code  0x000021d4   0x644  HW_UART.o [1]
  .text                ro code  0x00002818    0x90  DblToFlt.o [4]
  .text                ro code  0x000028a8   0x418  bz_led.o [1]
  .text                ro code  0x00002cc0    0xa0  debug.o [1]
  .text                ro code  0x00002d60    0x78  HW_SYSTICK.o [1]
  .text                ro code  0x00002dd8    0x56  ABImemcpy_unaligned.o [5]
  .text                ro code  0x00002e30   0x568  printf.o [1]
  .text                ro code  0x00003398   0x1c0  HW_PIT.o [1]
  .text                ro code  0x00003558   0x9f4  HW_FTM.o [1]
  .text                ro code  0x00003f4c    0x22  stdlib.o [1]
  .text                ro code  0x00003f70   0x9f4  OLED.o [1]
  .text                ro code  0x00004964    0x2e  DblCmpLe.o [4]
  .text                ro code  0x00004994    0x2e  DblCmpGe.o [4]
  .text                ro code  0x000049c4   0x9a0  GUI.o [1]
  .text                ro code  0x00005364   0x278  key.o [1]
  .text                ro code  0x000055dc    0x4e  FltToDbl.o [4]
  .text                ro code  0x0000562c    0x74  PIT.o [1]
  .text                ro code  0x000056a0    0xc8  nvic.o [1]
  .text                ro code  0x00005768   0x1d8  HW_NVIC.o [1]
  .rodata              const    0x00005940   0x5f0  OLED.o [1]
  .text                ro code  0x00005f30   0x2ea  dirctl.o [1]
  .text                ro code  0x0000621c    0x2e  I32ToFlt.o [4]
  .text                ro code  0x0000624c    0xd8  FltMul.o [4]
  .text                ro code  0x00006324    0xe6  FltSub.o [4]
  .text                ro code  0x0000640c    0x84  FltAdd.o [4]
  .text                ro code  0x00006490    0x24  FltCmpGe.o [4]
  .text                ro code  0x000064b4    0x24  FltCmpLe.o [4]
  .text                ro code  0x000064d8    0x44  FltToS32.o [4]
  .text                ro code  0x0000651c   0x2a8  control.o [1]
  .text                ro code  0x000067c4    0x24  FltToU32.o [4]
  .text                ro code  0x000067e8   0x2a4  motto.o [1]
  .rodata              const    0x00006a8c   0x228  OLED.o [1]
  .text                ro code  0x00006cb4   0x218  HW_SPI.o [1]
  Veneer               ro code  0x00006ecc     0x8  - Linker created -
  .text                ro code  0x00006ed4   0x1fc  HW_MCG.o [1]
  .text                ro code  0x000070d0   0x1f6  HW_CAN.o [1]
  .text                ro code  0x000072c8   0x1bc  star.o [1]
  .text                ro code  0x00007484   0x1a0  system_MK60DZ10.o [1]
  .text                ro code  0x00007624    0xc0  relocate.o [1]
  .rodata              const    0x000076e4   0x16c  OLED.o [1]
  .text                ro code  0x00007850   0x168  HW_DMA.o [1]
  .text                ro code  0x000079b8   0x138  main.o [1]
  .text                ro code  0x00007af0    0x68  sysinit.o [1]
  .text                ro code  0x00007b58    0x5c  UART.o [1]
  .text                ro code  0x00007bb4   0x104  FTM.o [1]
  .text                ro code  0x00007cb8    0xf4  HW_DAC.o [1]
  .text                ro code  0x00007dac    0xc8  HW_I2C.o [1]
  .data_init                    0x00007e74    0xc0  <Block>
    Initializer bytes  ro data  0x00007e74    0xc0  <for .data-1> (used: 0xbc)
  .text                ro code  0x00007f34    0x80  HW_ENET.o [1]
  .text                ro code  0x00007fb4    0x80  HW_PDB.o [1]
  .text                ro code  0x00008034    0x6c  HW_TSI.o [1]
  .text                ro code  0x000080a0    0x60  HW_RTC.o [1]
  CodeRelocate                  0x00008100    0x50  <Block>
    Initializer bytes  ro data  0x00008100    0x50  <for CodeRelocateRam-1>
  .rodata              const    0x00008150    0x48  system_MK60DZ10.o [1]
  .rodata              const    0x00008198    0x44  HW_GPIO.o [1]
  .rodata              const    0x000081dc    0x44  HW_NVIC.o [1]
  .rodata              const    0x00008220    0x44  system_MK60DZ10.o [1]
  .rodata              const    0x00008264    0x44  system_MK60DZ10.o [1]
  .rodata              const    0x000082a8    0x40  HW_FTM.o [1]
  .rodata              const    0x000082e8    0x40  HW_PIT.o [1]
  .rodata              const    0x00008328    0x30  assert.o [1]
  .rodata              const    0x00008358    0x30  system_MK60DZ10.o [1]
  .rodata              const    0x00008388    0x30  system_MK60DZ10.o [1]
  .text                ro code  0x000083b8    0x28  data_init.o [5]
  .rodata              const    0x000083e0    0x24  system_MK60DZ10.o [1]
  .rodata              const    0x00008404    0x24  system_MK60DZ10.o [1]
  .iar.init_table      const    0x00008428    0x10  - Linker created -
  .rodata              const    0x00008438    0x20  system_MK60DZ10.o [1]
  .rodata              const    0x00008458    0x1c  OLED.o [1]
  .text                ro code  0x00008474    0x1c  HW_ADC.o [1]
  .text                ro code  0x00008490    0x1a  cmain.o [5]
  .text                ro code  0x000084aa     0x4  low_level_init.o [3]
  .text                ro code  0x000084ae     0x4  exit.o [3]
  .text                ro code  0x000084b4     0xa  cexit.o [5]
  .text                ro code  0x000084c0    0x14  exit.o [6]
  .text                ro code  0x000084d4    0x14  io.o [1]
  .rodata              const    0x000084e8    0x10  GUI.o [1]
  .rodata              const    0x000084f8    0x10  GUI.o [1]
  .rodata              const    0x00008508    0x10  GUI.o [1]
  .text                ro code  0x00008518    0x10  HW_USB.o [1]
  .rodata              const    0x00008528     0xc  GUI.o [1]
  .rodata              const    0x00008534     0xc  GUI.o [1]
  .rodata              const    0x00008540     0xc  GUI.o [1]
  .rodata              const    0x0000854c     0xc  GUI.o [1]
  .rodata              const    0x00008558     0xc  GUI.o [1]
  .text                ro code  0x00008564     0xc  cstartup_M.o [5]
  .rodata              const    0x00008570     0x8  GUI.o [1]
  .rodata              const    0x00008578     0x8  GUI.o [1]
  .rodata              const    0x00008580     0x8  GUI.o [1]
  .rodata              const    0x00008588     0x8  GUI.o [1]
  .rodata              const    0x00008590     0x8  GUI.o [1]
  .rodata              const    0x00008598     0x8  GUI.o [1]
  .rodata              const    0x000085a0     0x8  OLED.o [1]
  .rodata              const    0x000085a8     0x8  system_MK60DZ10.o [1]
                              - 0x000085b0  0x818c

"P2":                                       0x1688
  .data                         0x1fff8410    0xbc  <Block>
    .data-1                     0x1fff8410    0xbc  <Init block>
      .data            inited   0x1fff8410     0x1  bz_led.o [1]
      .data            inited   0x1fff8411     0x1  control.o [1]
      .data            inited   0x1fff8412     0x1  control.o [1]
      .data            inited   0x1fff8413     0x1  control.o [1]
      .data            inited   0x1fff8414     0x1  debug.o [1]
      .data            inited   0x1fff8415     0x1  debug.o [1]
      .data            inited   0x1fff8416     0x1  freecars.o [1]
      .data            inited   0x1fff8418    0x10  GUI.o [1]
      .data            inited   0x1fff8428     0x8  GUI.o [1]
      .data            inited   0x1fff8430    0x88  GUI.o [1]
      .data            inited   0x1fff84b8     0x4  HW_MCG.o [1]
      .data            inited   0x1fff84bc     0x4  HW_MCG.o [1]
      .data            inited   0x1fff84c0     0x4  HW_MCG.o [1]
      .data            inited   0x1fff84c4     0x4  HW_MCG.o [1]
      .data            inited   0x1fff84c8     0x4  system_MK60DZ10.o [1]
  CodeRelocateRam               0x1fff84cc    0x50  <Block>
    CodeRelocateRam-1           0x1fff84cc    0x50  <Init block>
      .textrw          inited   0x1fff84cc    0x50  HW_MCG.o [1]
  .bss                          0x1fff8520   0x576  <Block>
    .bss               zero     0x1fff8520    0x48  freecars.o [1]
    .bss               zero     0x1fff8568    0xb0  control.o [1]
    .bss               zero     0x1fff8618    0x14  debug.o [1]
    .bss               zero     0x1fff862c     0xc  del_sensor.o [1]
    .bss               zero     0x1fff8638    0x64  del_sensor.o [1]
    .bss               zero     0x1fff869c    0x24  freecars.o [1]
    .bss               zero     0x1fff86c0    0x6c  freecars.o [1]
    .bss               zero     0x1fff872c    0x1c  FTM.o [1]
    .bss               zero     0x1fff8748    0x1c  FTM.o [1]
    .bss               zero     0x1fff8764     0x8  GUI.o [1]
    .bss               zero     0x1fff876c     0x8  HW_ADC.o [1]
    .bss               zero     0x1fff8774   0x100  HW_CAN.o [1]
    .bss               zero     0x1fff8874    0x40  HW_CAN.o [1]
    .bss               zero     0x1fff88b4    0x40  HW_CAN.o [1]
    .bss               zero     0x1fff88f4     0x8  HW_DAC.o [1]
    .bss               zero     0x1fff88fc     0x8  HW_DAC.o [1]
    .bss               zero     0x1fff8904     0x8  HW_DAC.o [1]
    .bss               zero     0x1fff890c    0x40  HW_DMA.o [1]
    .bss               zero     0x1fff894c    0x10  HW_ENET.o [1]
    .bss               zero     0x1fff895c     0xc  HW_FTM.o [1]
    .bss               zero     0x1fff8968    0x14  HW_GPIO.o [1]
    .bss               zero     0x1fff897c     0x8  HW_I2C.o [1]
    .bss               zero     0x1fff8984     0x4  HW_LPTMR.o [1]
    .bss               zero     0x1fff8988     0x4  HW_PDB.o [1]
    .bss               zero     0x1fff898c     0x4  HW_PDB.o [1]
    .bss               zero     0x1fff8990    0x10  HW_PIT.o [1]
    .bss               zero     0x1fff89a0     0xc  HW_RTC.o [1]
    .bss               zero     0x1fff89ac    0x18  HW_SPI.o [1]
    .bss               zero     0x1fff89c4    0x18  HW_SPI.o [1]
    .bss               zero     0x1fff89dc    0x18  HW_SPI.o [1]
    .bss               zero     0x1fff89f4     0x4  HW_SYSTICK.o [1]
    .bss               zero     0x1fff89f8     0x8  HW_TSI.o [1]
    .bss               zero     0x1fff8a00    0x18  HW_UART.o [1]
    .bss               zero     0x1fff8a18    0x18  HW_UART.o [1]
    .bss               zero     0x1fff8a30     0x4  HW_USB.o [1]
    .bss               zero     0x1fff8a34    0x10  LDC1614.o [1]
    .bss               zero     0x1fff8a44     0x4  LDC1614.o [1]
    .bss               zero     0x1fff8a48    0x14  nvic.o [1]
    .bss               zero     0x1fff8a5c    0x14  PIT.o [1]
    .bss               zero     0x1fff8a70    0x14  UART.o [1]
    .bss               zero     0x1fff8a84     0x2  bz_led.o [1]
    .bss               zero     0x1fff8a86     0x2  main.o [1]
    .bss               zero     0x1fff8a88     0x2  main.o [1]
    .bss               zero     0x1fff8a8a     0x1  control.o [1]
    .bss               zero     0x1fff8a8b     0x1  control.o [1]
    .bss               zero     0x1fff8a8c     0x1  control.o [1]
    .bss               zero     0x1fff8a8d     0x1  debug.o [1]
    .bss               zero     0x1fff8a8e     0x1  del_sensor.o [1]
    .bss               zero     0x1fff8a8f     0x1  key.o [1]
    .bss               zero     0x1fff8a90     0x1  main.o [1]
    .bss               zero     0x1fff8a91     0x1  motto.o [1]
  CSTACK                        0x1fff8a98  0x1000  <Block>
    CSTACK             uninit   0x1fff8a98  0x1000  <Block tail>
                              - 0x1fff9a98  0x1688


*******************************************************************************
*** INIT TABLE
***

          Address     Size
          -------     ----
Zero (__iar_zero_init3)
    1 destination range, total size 0x572:
          0x1fff8520  0x572



*******************************************************************************
*** MODULE SUMMARY
***

    Module                 ro code  rw code  ro data  rw data
    ------                 -------  -------  -------  -------
C:\百度云同步盘\比赛代码\LPLD_OSKinetis_V3\launch\NXP_(golden_cyprinoid) 冲击华南赛 1车\iar\FLASH\Obj: [1]
    FTM.o                      260                         56
    GUI.o                    2 464               317      168
    HW_ADC.o                    28                          8
    HW_CAN.o                   502                        384
    HW_DAC.o                   244                         24
    HW_DMA.o                   360                         64
    HW_ENET.o                  128                         16
    HW_FTM.o                 2 548                64       12
    HW_GPIO.o                  460                68       20
    HW_I2C.o                   200                          8
    HW_LPTMR.o                 108                          4
    HW_MCG.o                   508       80       96       16
    HW_NVIC.o                  472                68
    HW_PDB.o                   128                          8
    HW_PIT.o                   448                64       16
    HW_RTC.o                    96                         12
    HW_SPI.o                   536                         72
    HW_SYSTICK.o               120                          4
    HW_TSI.o                   108                          8
    HW_UART.o                1 604                         48
    HW_USB.o                    16                          4
    LDC1614.o                  404                         20
    OLED.o                   2 548             2 472
    PIT.o                      116                         20
    UART.o                      92                         20
    assert.o                    24                48
    bz_led.o                 1 048                 1        3
    control.o                  680                 3      182
    debug.o                    160                 2       23
    del_sensor.o             3 232                        113
    dirctl.o                   746
    freecars.o                 924                 1      217
    i2c.o                      676
    io.o                        20
    key.o                      632                          1
    main.o                     312                          5
    motto.o                    676                          1
    nvic.o                     200                         20
    printf.o                 1 384
    relocate.o                 192
    star.o                     444
    startup_K60.o            1 044
    stdlib.o                    34
    sysinit.o                  104
    system_MK60DZ10.o          416               420        4
    ---------------------------------------------------------
    Total:                  27 446       80    3 624    1 581

command line: [2]
    ---------------------------------------------------------
    Total:

dl7M_tln.a: [3]
    exit.o                       4
    low_level_init.o             4
    ---------------------------------------------------------
    Total:                       8

m7M_tl.a: [4]
    DblAdd.o                   232
    DblCmpGe.o                  46
    DblCmpLe.o                  46
    DblDiv.o                   582
    DblMul.o                   418
    DblSub.o                   384
    DblToFlt.o                 144
    DblToI32.o                  76
    FltAdd.o                   132
    FltCmpGe.o                  36
    FltCmpLe.o                  36
    FltMul.o                   216
    FltSub.o                   230
    FltToDbl.o                  78
    FltToS32.o                  68
    FltToU32.o                  36
    I32ToDbl.o                  44
    I32ToFlt.o                  46
    ---------------------------------------------------------
    Total:                   2 850

rt7M_tl.a: [5]
    ABImemcpy_unaligned.o       86
    cexit.o                     10
    cmain.o                     26
    cstartup_M.o                12
    data_init.o                 40
    zero_init3.o                34
    ---------------------------------------------------------
    Total:                     208

shb_l.a: [6]
    exit.o                      20
    ---------------------------------------------------------
    Total:                      20

    Gaps                        24                          1
    Linker created               8                20    4 096
-------------------------------------------------------------
    Grand Total:            30 564       80    3 644    5 678


*******************************************************************************
*** ENTRY LIST
***

Entry                      Address   Size  Type      Object
-----                      -------   ----  ----      ------
.bss$$Base              0x1fff8520          --   Gb  - Linker created -
.bss$$Limit             0x1fff8a92          --   Gb  - Linker created -
.data$$Base             0x1fff8410          --   Gb  - Linker created -
.data$$Limit            0x1fff84cc          --   Gb  - Linker created -
.data_init$$Base        0x00007e74          --   Gb  - Linker created -
.data_init$$Limit       0x00007f34          --   Gb  - Linker created -
?main                   0x00008491         Code  Gb  cmain.o [5]
ADC0_IRQHandler         0x00008475    0xa  Code  Gb  HW_ADC.o [1]
ADC1_IRQHandler         0x0000847f    0xa  Code  Gb  HW_ADC.o [1]
ADC_ISR                 0x1fff876c    0x8  Data  Gb  HW_ADC.o [1]
AIM_Buff                0x1fff8418   0x10  Data  Gb  GUI.o [1]
ASSERT_FAILED_STR       0x00008328   0x30  Data  Gb  assert.o [1]
CAN0_BUS_OFF_IRQHandler
                        0x0000723d    0x8  Code  Gb  HW_CAN.o [1]
CAN0_ERR_IRQHandler     0x00007245   0x10  Code  Gb  HW_CAN.o [1]
CAN0_IMEU_IRQHandler    0x0000726b    0x2  Code  Gb  HW_CAN.o [1]
CAN0_ISR                0x1fff8874   0x40  Data  Gb  HW_CAN.o [1]
CAN0_LR_IRQHandler      0x0000726d    0x2  Code  Gb  HW_CAN.o [1]
CAN0_MESS_IRQHandler    0x00007235    0x8  Code  Gb  HW_CAN.o [1]
CAN0_RW_IRQHandler      0x0000725f    0xa  Code  Gb  HW_CAN.o [1]
CAN0_TW_IRQHandler      0x00007255    0xa  Code  Gb  HW_CAN.o [1]
CAN0_WAKE_UP_IRQHandler
                        0x00007269    0x2  Code  Gb  HW_CAN.o [1]
CAN1_BUS_OFF_IRQHandler
                        0x00007277    0x8  Code  Gb  HW_CAN.o [1]
CAN1_ERR_IRQHandler     0x0000727f   0x10  Code  Gb  HW_CAN.o [1]
CAN1_IMEU_IRQHandler    0x000072c3    0x2  Code  Gb  HW_CAN.o [1]
CAN1_ISR                0x1fff88b4   0x40  Data  Gb  HW_CAN.o [1]
CAN1_LR_IRQHandler      0x000072c5    0x2  Code  Gb  HW_CAN.o [1]
CAN1_MESS_IRQHandler    0x0000726f    0x8  Code  Gb  HW_CAN.o [1]
CAN1_RW_IRQHandler      0x00007299    0xa  Code  Gb  HW_CAN.o [1]
CAN1_TW_IRQHandler      0x0000728f    0xa  Code  Gb  HW_CAN.o [1]
CAN1_WAKE_UP_IRQHandler
                        0x000072c1    0x2  Code  Gb  HW_CAN.o [1]
CSTACK$$Base            0x1fff8a98          --   Gb  - Linker created -
CSTACK$$Limit           0x1fff9a98          --   Gb  - Linker created -
CTL_SEN_init            0x0000651d   0x9e  Code  Gb  control.o [1]
CTL_isr                 0x000065bb  0x1a6  Code  Gb  control.o [1]
CodeRelocate$$Base      0x00008100          --   Gb  - Linker created -
CodeRelocate$$Limit     0x00008150          --   Gb  - Linker created -
CodeRelocateRam$$Base   0x1fff84cc          --   Gb  - Linker created -
CodeRelocateRam$$Limit  0x1fff851c          --   Gb  - Linker created -
DAC0_IRQHandler         0x00007cb9   0x6a  Code  Gb  HW_DAC.o [1]
DAC1_IRQHandler         0x00007d23   0x6a  Code  Gb  HW_DAC.o [1]
DAC_RDPTBOT_ISR         0x1fff88f4    0x8  Data  Gb  HW_DAC.o [1]
DAC_RDPTTOP_ISR         0x1fff88fc    0x8  Data  Gb  HW_DAC.o [1]
DAC_WATERMK_ISR         0x1fff8904    0x8  Data  Gb  HW_DAC.o [1]
DMA0_IRQHandler         0x00007851   0x16  Code  Gb  HW_DMA.o [1]
DMA10_IRQHandler        0x0000792d   0x16  Code  Gb  HW_DMA.o [1]
DMA11_IRQHandler        0x00007943   0x16  Code  Gb  HW_DMA.o [1]
DMA12_IRQHandler        0x00007959   0x16  Code  Gb  HW_DMA.o [1]
DMA13_IRQHandler        0x0000796f   0x16  Code  Gb  HW_DMA.o [1]
DMA14_IRQHandler        0x00007985   0x16  Code  Gb  HW_DMA.o [1]
DMA15_IRQHandler        0x0000799b   0x16  Code  Gb  HW_DMA.o [1]
DMA1_IRQHandler         0x00007867   0x16  Code  Gb  HW_DMA.o [1]
DMA2_IRQHandler         0x0000787d   0x16  Code  Gb  HW_DMA.o [1]
DMA3_IRQHandler         0x00007893   0x16  Code  Gb  HW_DMA.o [1]
DMA4_IRQHandler         0x000078a9   0x16  Code  Gb  HW_DMA.o [1]
DMA5_IRQHandler         0x000078bf   0x16  Code  Gb  HW_DMA.o [1]
DMA6_IRQHandler         0x000078d5   0x16  Code  Gb  HW_DMA.o [1]
DMA7_IRQHandler         0x000078eb   0x16  Code  Gb  HW_DMA.o [1]
DMA8_IRQHandler         0x00007901   0x16  Code  Gb  HW_DMA.o [1]
DMA9_IRQHandler         0x00007917   0x16  Code  Gb  HW_DMA.o [1]
DMA_ISR                 0x1fff890c   0x40  Data  Gb  HW_DMA.o [1]
DateAnalyse             0x00000a23  0x5fe  Code  Gb  del_sensor.o [1]
DefaultISR              0x000075ab   0x14  Code  Gb  system_MK60DZ10.o [1]
Dir_Buff                0x1fff8430   0x88  Data  Gb  GUI.o [1]
ENET_ISR                0x1fff894c   0x10  Data  Gb  HW_ENET.o [1]
Eth_Err_Misc_IRQHandler
                        0x00007f97   0x16  Code  Gb  HW_ENET.o [1]
Eth_IEEE1588_IRQHandler
                        0x00007f81   0x16  Code  Gb  HW_ENET.o [1]
Eth_RX_IRQHandler       0x00007f35   0x26  Code  Gb  HW_ENET.o [1]
Eth_TX_IRQHandler       0x00007f5b   0x26  Code  Gb  HW_ENET.o [1]
F14x16                  0x000076e4  0x16c  Data  Gb  OLED.o [1]
F14x16_Idx              0x00008458   0x1c  Data  Gb  OLED.o [1]
F6x8                    0x00006a8c  0x228  Data  Gb  OLED.o [1]
F8X16                   0x00005940  0x5f0  Data  Gb  OLED.o [1]
FTM0_IRQHandler         0x00003ebd    0xa  Code  Gb  HW_FTM.o [1]
FTM1_IRQHandler         0x00003ec7    0xa  Code  Gb  HW_FTM.o [1]
FTM2_IRQHandler         0x00003ed1    0xa  Code  Gb  HW_FTM.o [1]
FTM_ISR                 0x1fff895c    0xc  Data  Gb  HW_FTM.o [1]
FreeCarsDataNum         0x1fff8416    0x1  Data  Gb  freecars.o [1]
GPIO_ISR                0x1fff8968   0x14  Data  Gb  HW_GPIO.o [1]
GUI                     0x1fff8764    0x8  Data  Gb  GUI.o [1]
GUI_update              0x00004ec5   0x40  Code  Gb  GUI.o [1]
GUI_work                0x000049c5  0x500  Code  Gb  GUI.o [1]
HardFault_Handler       0x000075a1    0xa  Code  Gb  system_MK60DZ10.o [1]
I2C0_IRQHandler         0x00007dad   0x5a  Code  Gb  HW_I2C.o [1]
I2C1_IRQHandler         0x00007e07   0x5a  Code  Gb  HW_I2C.o [1]
I2CSendByte             0x00002089   0x42  Code  Gb  i2c.o [1]
I2C_CLK_INIT            0x00001f27   0x34  Code  Gb  i2c.o [1]
I2C_DAT_IN              0x00001f5b   0x34  Code  Gb  i2c.o [1]
I2C_ISR                 0x1fff897c    0x8  Data  Gb  HW_I2C.o [1]
I2C_start               0x00001f8f   0x3a  Code  Gb  i2c.o [1]
I2C_stop                0x00001fc9   0x2e  Code  Gb  i2c.o [1]
I2Ccheck_ACK            0x00001ff7   0x3c  Code  Gb  i2c.o [1]
I2Cdelay_1us            0x00001f19    0xe  Code  Gb  i2c.o [1]
I2CreceiveByte          0x000020cb   0x68  Code  Gb  i2c.o [1]
I2Cslave_ACK            0x00002033   0x2e  Code  Gb  i2c.o [1]
I2Cslave_NOACK          0x00002061   0x28  Code  Gb  i2c.o [1]
LDC1614_init            0x00001131   0xe2  Code  Gb  LDC1614.o [1]
LDC1614_read_meas       0x00001221   0x9c  Code  Gb  LDC1614.o [1]
LDC1614_start_meas      0x00001213    0xe  Code  Gb  LDC1614.o [1]
LDC_READ                0x00002179   0x44  Code  Gb  i2c.o [1]
LDC_SEND                0x00002149   0x30  Code  Gb  i2c.o [1]
LDC_data                0x1fff8a34   0x10  Data  Gb  LDC1614.o [1]
LDC_flag                0x1fff8a44    0x4  Data  Gb  LDC1614.o [1]
LPLD_CAN_Interrupt_ClearPending
                        0x000070d1   0x26  Code  Lc  HW_CAN.o [1]
LPLD_CAN_Interrupt_GetFlag
                        0x000070f7   0x2a  Code  Lc  HW_CAN.o [1]
LPLD_CAN_MB_ISR         0x000071d9   0x5c  Code  Lc  HW_CAN.o [1]
LPLD_CAN_Receive_Interrupt
                        0x0000717b   0x5e  Code  Lc  HW_CAN.o [1]
LPLD_CAN_Transmit_Interrupt
                        0x00007121   0x5a  Code  Gb  HW_CAN.o [1]
LPLD_FTM_ClearCounter   0x00003747    0x6  Code  Gb  HW_FTM.o [1]
LPLD_FTM_DEC_Init       0x00003eb5    0x8  Code  Lc  HW_FTM.o [1]
LPLD_FTM_GetCounter     0x00003741    0x6  Code  Gb  HW_FTM.o [1]
LPLD_FTM_IC_Init        0x000038e5   0x9e  Code  Lc  HW_FTM.o [1]
LPLD_FTM_Init           0x00003559  0x128  Code  Gb  HW_FTM.o [1]
LPLD_FTM_PWM_ChangeDuty
                        0x000036f3   0x4e  Code  Gb  HW_FTM.o [1]
LPLD_FTM_PWM_Enable     0x00003681   0x72  Code  Gb  HW_FTM.o [1]
LPLD_FTM_PWM_Init       0x00003781  0x164  Code  Lc  HW_FTM.o [1]
LPLD_FTM_PinInit        0x00003983  0x4d0  Code  Lc  HW_FTM.o [1]
LPLD_FTM_QD_Enable      0x0000374d   0x34  Code  Gb  HW_FTM.o [1]
LPLD_FTM_QD_Init        0x00003e79   0x3c  Code  Lc  HW_FTM.o [1]
LPLD_GPIO_Init          0x000012c5  0x106  Code  Gb  HW_GPIO.o [1]
LPLD_GPIO_Input_b       0x000013e3    0xa  Code  Gb  HW_GPIO.o [1]
LPLD_GPIO_Output_b      0x000013cb   0x18  Code  Gb  HW_GPIO.o [1]
LPLD_LPTMR_DelayMs      0x000010c5   0x40  Code  Gb  HW_LPTMR.o [1]
LPLD_NVIC_Init          0x00005813  0x112  Code  Gb  HW_NVIC.o [1]
LPLD_PIT_Deinit         0x00003473   0x32  Code  Gb  HW_PIT.o [1]
LPLD_PIT_EnableIrq      0x000034a5   0x26  Code  Gb  HW_PIT.o [1]
LPLD_PIT_Init           0x000033c1   0xb2  Code  Gb  HW_PIT.o [1]
LPLD_PLL_Setup          0x00006ed5  0x1fc  Code  Gb  HW_MCG.o [1]
LPLD_SYSTICK_DelayUs    0x00002d61   0x50  Code  Gb  HW_SYSTICK.o [1]
LPLD_Set_SYS_DIV        0x1fff84cd   0x50  Code  Gb  HW_MCG.o [1]
LPLD_UART_EnableIrq     0x000025c3   0x68  Code  Gb  HW_UART.o [1]
LPLD_UART_GetChar       0x000025ab    0xe  Code  Gb  HW_UART.o [1]
LPLD_UART_Init          0x000021eb  0x3c0  Code  Gb  HW_UART.o [1]
LPLD_UART_PutChar       0x000025b9    0xa  Code  Gb  HW_UART.o [1]
LPTMR_ISR               0x1fff8984    0x4  Data  Gb  HW_LPTMR.o [1]
LPT_IRQHandler          0x00001105   0x16  Code  Gb  HW_LPTMR.o [1]
MCNT_isr                0x00007a83   0x3a  Code  Gb  main.o [1]
NVIC_DisableIRQ         0x0000579b   0x14  Code  Lc  HW_NVIC.o [1]
NVIC_DisableIRQ         0x000033ad   0x14  Code  Lc  HW_PIT.o [1]
NVIC_EnableIRQ          0x00005787   0x14  Code  Lc  HW_NVIC.o [1]
NVIC_EnableIRQ          0x00003399   0x14  Code  Lc  HW_PIT.o [1]
NVIC_EnableIRQ          0x000021d5   0x16  Code  Lc  HW_UART.o [1]
NVIC_EncodePriority     0x000057d5   0x3e  Code  Lc  HW_NVIC.o [1]
NVIC_SetPriority        0x000057af   0x26  Code  Lc  HW_NVIC.o [1]
NVIC_SetPriorityGrouping
                        0x00005769   0x1e  Code  Lc  HW_NVIC.o [1]
NVIC_init               0x000056a1   0xc8  Code  Gb  nvic.o [1]
OLEDIO_init             0x00003f71   0x3a  Code  Gb  OLED.o [1]
OLED_CLS                0x000040e9   0x3c  Code  Gb  OLED.o [1]
OLED_DLY_ms             0x00004125   0x1c  Code  Gb  OLED.o [1]
OLED_Fill               0x000040a9   0x40  Code  Gb  OLED.o [1]
OLED_Init               0x00004141   0xf4  Code  Gb  OLED.o [1]
OLED_P14x16Str          0x000043e7  0x140  Code  Gb  OLED.o [1]
OLED_P6x8Str            0x000042c1   0x7c  Code  Gb  OLED.o [1]
OLED_P8x16Char          0x00004235   0x8c  Code  Gb  OLED.o [1]
OLED_P8x16Str           0x0000433d   0xaa  Code  Gb  OLED.o [1]
OLED_PrintFloat         0x00004527  0x244  Code  Gb  OLED.o [1]
OLED_PrintInt16         0x00004771  0x1bc  Code  Gb  OLED.o [1]
OLED_Set_Pos            0x0000407b   0x2e  Code  Gb  OLED.o [1]
OLED_WrCmd              0x00004015   0x66  Code  Gb  OLED.o [1]
OLED_WrDat              0x00003fad   0x66  Code  Gb  OLED.o [1]
OS_CPU_SysTickHandler   0x00002db1    0xa  Code  Gb  HW_SYSTICK.o [1]
PDB_IRQHandler          0x00007fb5   0x6a  Code  Gb  HW_PDB.o [1]
PDB_ISR                 0x1fff8988    0x4  Data  Gb  HW_PDB.o [1]
PDB_SE_ISR              0x1fff898c    0x4  Data  Gb  HW_PDB.o [1]
PIT0_IRQHandler         0x000034cb   0x16  Code  Gb  HW_PIT.o [1]
PIT0_init               0x0000562d   0x34  Code  Gb  PIT.o [1]
PIT1_IRQHandler         0x000034e1   0x16  Code  Gb  HW_PIT.o [1]
PIT1_init               0x00005661   0x34  Code  Gb  PIT.o [1]
PIT2_IRQHandler         0x000034f7   0x16  Code  Gb  HW_PIT.o [1]
PIT3_IRQHandler         0x0000350d   0x16  Code  Gb  HW_PIT.o [1]
PIT_ISR                 0x1fff8990   0x10  Data  Gb  HW_PIT.o [1]
PORTA_IRQHandler        0x000013ed   0x12  Code  Gb  HW_GPIO.o [1]
PORTB_IRQHandler        0x000013ff   0x12  Code  Gb  HW_GPIO.o [1]
PORTC_IRQHandler        0x00001411   0x12  Code  Gb  HW_GPIO.o [1]
PORTD_IRQHandler        0x00001423   0x12  Code  Gb  HW_GPIO.o [1]
PORTE_IRQHandler        0x00001435   0x12  Code  Gb  HW_GPIO.o [1]
PWM_init                0x00007bb5   0x6a  Code  Gb  FTM.o [1]
RTC_IRQHandler          0x000080a1   0x56  Code  Gb  HW_RTC.o [1]
RTC_ISR                 0x1fff89a0    0xc  Data  Gb  HW_RTC.o [1]
Region$$Table$$Base     0x00008428          --   Gb  - Linker created -
Region$$Table$$Limit    0x00008438          --   Gb  - Linker created -
S3010_CTL               0x00005f31  0x290  Code  Gb  dirctl.o [1]
S3010_init              0x00007c1f   0x48  Code  Gb  FTM.o [1]
SPI0_IRQHandler         0x00006cb5   0xaa  Code  Gb  HW_SPI.o [1]
SPI0_ISR                0x1fff89ac   0x18  Data  Gb  HW_SPI.o [1]
SPI1_IRQHandler         0x00006d5f   0xaa  Code  Gb  HW_SPI.o [1]
SPI1_ISR                0x1fff89c4   0x18  Data  Gb  HW_SPI.o [1]
SPI2_IRQHandler         0x00006e09   0xaa  Code  Gb  HW_SPI.o [1]
SPI2_ISR                0x1fff89dc   0x18  Data  Gb  HW_SPI.o [1]
SYSTICK_ISR             0x1fff89f4    0x4  Data  Gb  HW_SYSTICK.o [1]
SerialPortRx            0x1fff86c0   0x6c  Data  Gb  freecars.o [1]
SystemCoreClock         0x1fff84c8    0x4  Data  Gb  system_MK60DZ10.o [1]
SystemCoreClockUpdate   0x00007579   0x28  Code  Gb  system_MK60DZ10.o [1]
SystemInit              0x00007485   0xf4  Code  Gb  system_MK60DZ10.o [1]
TSI_IRQHandler          0x00008035   0x5c  Code  Gb  HW_TSI.o [1]
TSI_ISR                 0x1fff89f8    0x8  Data  Gb  HW_TSI.o [1]
UART0_IRQHandler        0x0000262b   0x30  Code  Gb  HW_UART.o [1]
UART1_IRQHandler        0x0000265b   0x30  Code  Gb  HW_UART.o [1]
UART2_IRQHandler        0x0000268b   0x30  Code  Gb  HW_UART.o [1]
UART3_IRQHandler        0x000026bb   0x30  Code  Gb  HW_UART.o [1]
UART4_IRQHandler        0x000026eb   0x30  Code  Gb  HW_UART.o [1]
UART5_IRQHandler        0x0000271b   0x30  Code  Gb  HW_UART.o [1]
UART_R_ISR              0x1fff8a00   0x18  Data  Gb  HW_UART.o [1]
UART_T_ISR              0x1fff8a18   0x18  Data  Gb  HW_UART.o [1]
UART_init               0x00007b59   0x5c  Code  Gb  UART.o [1]
USB_ISR                 0x1fff8a30    0x4  Data  Gb  HW_USB.o [1]
USB_OTG_IRQHandler      0x00008519    0xa  Code  Gb  HW_USB.o [1]
UartCmd                 0x000017a3   0x6a  Code  Gb  freecars.o [1]
UartData                0x1fff8520   0x48  Data  Gb  freecars.o [1]
UartDebug               0x00001735   0x6e  Code  Gb  freecars.o [1]
__BOOT_STACK_ADDRESS {Abs}
                        0x20007ff8          --   Gb  command line/config [2]
__VECTOR_RAM {Abs}      0x1fff0000          --   Gb  command line/config [2]
__VECTOR_TABLE {Abs}    0x00000000          --   Gb  command line/config [2]
__Vectors               0x00000000          --   Gb  startup_K60.o [1]
__Vectors_End           0x00000400         Data  Gb  startup_K60.o [1]
__Vectors_Size {Abs}    0x00000400          --   Gb  startup_K60.o [1]
__aeabi_cdcmple         0x00004965         Code  Gb  DblCmpLe.o [4]
__aeabi_cdrcmple        0x00004995         Code  Gb  DblCmpGe.o [4]
__aeabi_cfcmple         0x000064b5         Code  Gb  FltCmpLe.o [4]
__aeabi_cfrcmple        0x00006491         Code  Gb  FltCmpGe.o [4]
__aeabi_d2f             0x00002819         Code  Gb  DblToFlt.o [4]
__aeabi_d2iz            0x00001c65         Code  Gb  DblToI32.o [4]
__aeabi_dadd            0x00001cb1         Code  Gb  DblAdd.o [4]
__aeabi_ddiv            0x00001a1d         Code  Gb  DblDiv.o [4]
__aeabi_dmul            0x00001859         Code  Gb  DblMul.o [4]
__aeabi_dsub            0x00001d99         Code  Gb  DblSub.o [4]
__aeabi_f2d             0x000055dd         Code  Gb  FltToDbl.o [4]
__aeabi_f2iz            0x000064d9         Code  Gb  FltToS32.o [4]
__aeabi_f2uiz           0x000067c5         Code  Gb  FltToU32.o [4]
__aeabi_fadd            0x0000640d         Code  Gb  FltAdd.o [4]
__aeabi_fmul            0x0000624d         Code  Gb  FltMul.o [4]
__aeabi_fsub            0x00006325         Code  Gb  FltSub.o [4]
__aeabi_i2d             0x0000182d         Code  Gb  I32ToDbl.o [4]
__aeabi_i2f             0x0000621d         Code  Gb  I32ToFlt.o [4]
__as_entries_start      0xffffffff          --   Gb  command line/config [2]
__as_table_start        0xffffffff          --   Gb  command line/config [2]
__cmain                 0x00008491         Code  Gb  cmain.o [5]
__exit                  0x000084c1   0x14  Code  Gb  exit.o [6]
__iar_d2uiz             0x00001c91         Code  Gb  DblToI32.o [4]
__iar_dadd              0x00001cc5         Code  Gb  DblAdd.o [4]
__iar_data_init3        0x000083b9   0x28  Code  Gb  data_init.o [5]
__iar_dsub              0x00001dad         Code  Gb  DblSub.o [4]
__iar_dsubStart         0x00001dbf         Code  Gb  DblSub.o [4]
__iar_fadd              0x0000641d         Code  Gb  FltAdd.o [4]
__iar_fsub              0x00006335         Code  Gb  FltSub.o [4]
__iar_fsubStart         0x00006345         Code  Gb  FltSub.o [4]
__iar_program_start     0x00008565         Code  Gb  cstartup_M.o [5]
__iar_ui2d              0x00001841         Code  Gb  I32ToDbl.o [4]
__iar_ui2f              0x00006231         Code  Gb  I32ToFlt.o [4]
__iar_unaligned___aeabi_memcpy4
                        0x00002dd9         Code  Gb  ABImemcpy_unaligned.o [5]
__iar_unaligned___aeabi_memcpy8
                        0x00002dd9         Code  Gb  ABImemcpy_unaligned.o [5]
__iar_zero_init3        0x000019fb   0x22  Code  Gb  zero_init3.o [5]
__low_level_init        0x000084ab    0x4  Code  Gb  low_level_init.o [3]
__vector_table          0x00000000         Data  Gb  startup_K60.o [1]
__vector_table_0x1c     0x0000001c         Data  Gb  startup_K60.o [1]
_call_main              0x0000849d         Code  Gb  cmain.o [5]
_exit                   0x000084b5         Code  Gb  cexit.o [5]
_main                   0x000084a7         Code  Gb  cmain.o [5]
abs                     0x000061f1   0x2a  Code  Gb  dirctl.o [1]
assert_failed           0x000021bd   0x18  Code  Gb  assert.o [1]
bz_cnt                  0x1fff8a84    0x2  Data  Gb  bz_led.o [1]
bz_cross                0x00002bf5   0xb4  Code  Gb  bz_led.o [1]
bz_datarec              0x00002a7d   0xb4  Code  Gb  bz_led.o [1]
bz_init                 0x000028a9   0x3a  Code  Gb  bz_led.o [1]
bz_norm                 0x00002b31    0x2  Code  Gb  bz_led.o [1]
bz_ready                0x00002955  0x128  Code  Gb  bz_led.o [1]
bz_set                  0x00002ca9    0xc  Code  Gb  bz_led.o [1]
bz_style                0x1fff8410    0x1  Data  Gb  bz_led.o [1]
bz_warn                 0x00002b33   0xc2  Code  Gb  bz_led.o [1]
bzled_work              0x0000291d   0x38  Code  Gb  bz_led.o [1]
common_relocate         0x00007625   0xc0  Code  Gb  relocate.o [1]
cross_Enable            0x1fff8413    0x1  Data  Gb  control.o [1]
ctl                     0x1fff8568   0xb0  Data  Gb  control.o [1]
ctl_sped                0x000068b3  0x19c  Code  Gb  motto.o [1]
debug_Enable            0x1fff8a8d    0x1  Data  Gb  debug.o [1]
debug_end               0x00002cc1   0x1c  Code  Gb  debug.o [1]
debugpit_init_struct    0x1fff8618   0x14  Data  Gb  debug.o [1]
dec_sec                 0x1fff8414    0x1  Data  Gb  debug.o [1]
exit                    0x000084af    0x4  Code  Gb  exit.o [3]
flag_bihuan             0x1fff8411    0x1  Data  Gb  control.o [1]
flag_cross              0x1fff8a8b    0x1  Data  Gb  control.o [1]
flag_ramp               0x1fff8a8a    0x1  Data  Gb  control.o [1]
flag_stop               0x1fff8415    0x1  Data  Gb  debug.o [1]
flexcan_msgobj_param_t  0x1fff8774  0x100  Data  Gb  HW_CAN.o [1]
freecars_isr            0x00001527  0x20e  Code  Gb  freecars.o [1]
ftm_init_struct         0x1fff872c   0x1c  Data  Gb  FTM.o [1]
g_bus_clock             0x1fff84bc    0x4  Data  Gb  HW_MCG.o [1]
g_core_clock            0x1fff84b8    0x4  Data  Gb  HW_MCG.o [1]
g_flash_clock           0x1fff84c0    0x4  Data  Gb  HW_MCG.o [1]
g_flexbus_clock         0x1fff84c4    0x4  Data  Gb  HW_MCG.o [1]
kaihuan_Buff            0x1fff8428    0x8  Data  Gb  GUI.o [1]
key_init                0x00005365   0x84  Code  Gb  key.o [1]
led_init                0x000028e3   0x3a  Code  Gb  bz_led.o [1]
line                    0x1fff862c    0xc  Data  Gb  del_sensor.o [1]
main                    0x000079b9   0xca  Code  Gb  main.o [1]
motto_getsped           0x0000688d   0x26  Code  Gb  motto.o [1]
motto_set               0x000067e9   0xa4  Code  Gb  motto.o [1]
nvic_init_struct        0x1fff8a48   0x14  Data  Gb  nvic.o [1]
out_char                0x000084d5   0x10  Code  Gb  io.o [1]
pit_init_struct         0x1fff8a5c   0x14  Data  Gb  PIT.o [1]
printf                  0x0000336f   0x26  Code  Gb  printf.o [1]
printk                  0x00002f59  0x416  Code  Gb  printf.o [1]
printk_mknumstr         0x00002e63   0xaa  Code  Lc  printf.o [1]
printk_pad_space        0x00002f33   0x26  Code  Lc  printf.o [1]
printk_pad_zero         0x00002f0d   0x26  Code  Lc  printf.o [1]
printk_putc             0x00002e31   0x32  Code  Lc  printf.o [1]
push                    0x00001491   0x30  Code  Gb  freecars.o [1]
qei_init                0x00007c67   0x3e  Code  Gb  FTM.o [1]
qei_init_struct         0x1fff8748   0x1c  Data  Gb  FTM.o [1]
ramp                    0x0000084f  0x1d4  Code  Gb  del_sensor.o [1]
ramp_Enable             0x1fff8412    0x1  Data  Gb  control.o [1]
ramp_cnt                0x1fff8a8e    0x1  Data  Gb  del_sensor.o [1]
read_sw                 0x00005507   0xa0  Code  Gb  key.o [1]
safty_check             0x00002d2b   0x20  Code  Gb  debug.o [1]
sendDataToScope         0x000014c1   0x66  Code  Gb  freecars.o [1]
send_cnt                0x1fff8a90    0x1  Data  Gb  main.o [1]
sensor                  0x1fff8638   0x64  Data  Gb  del_sensor.o [1]
sensor_isr              0x00000425  0x302  Code  Gb  del_sensor.o [1]
sensor_offset           0x00000727  0x128  Code  Gb  del_sensor.o [1]
speed_up_Enable         0x1fff8a91    0x1  Data  Gb  motto.o [1]
star                    0x000072c9  0x1bc  Code  Gb  star.o [1]
strlen                  0x00003f4d   0x22  Code  Gb  stdlib.o [1]
sw                      0x1fff8a8f    0x1  Data  Gb  key.o [1]
sysinit                 0x00007af1   0x68  Code  Gb  sysinit.o [1]
temp                    0x1fff8a88    0x2  Data  Gb  main.o [1]
timer_cnt               0x1fff8a86    0x2  Data  Gb  main.o [1]
timer_debug             0x00002cdd   0x4e  Code  Gb  debug.o [1]
uSendBuf                0x1fff869c   0x24  Data  Gb  freecars.o [1]
uart_init_struct        0x1fff8a70   0x14  Data  Gb  UART.o [1]
update_page1            0x00004f05   0x1c  Code  Gb  GUI.o [1]
update_page2            0x00004f21   0xee  Code  Gb  GUI.o [1]
update_page3            0x0000500f   0x64  Code  Gb  GUI.o [1]
update_page4            0x0000507d  0x1e6  Code  Gb  GUI.o [1]
update_page5            0x00005279   0x60  Code  Gb  GUI.o [1]
wait_key                0x000053e9  0x11e  Code  Gb  key.o [1]


[1] = C:\百度云同步盘\比赛代码\LPLD_OSKinetis_V3\launch\NXP_(golden_cyprinoid) 冲击华南赛 1车\iar\FLASH\Obj
[2] = command line
[3] = dl7M_tln.a
[4] = m7M_tl.a
[5] = rt7M_tl.a
[6] = shb_l.a

  30 564 bytes of readonly  code memory
      80 bytes of readwrite code memory
   3 644 bytes of readonly  data memory
   5 678 bytes of readwrite data memory

Errors: none
Warnings: none
