///////////////////////////////////////////////////////////////////////////////
//
// IAR ANSI C/C++ Compiler V7.20.2.7424/W32 for ARM       25/Dec/2015  16:57:19
// Copyright 1999-2014 IAR Systems AB.
//
//    Cpu mode     =  thumb
//    Endian       =  little
//    Source file  =  
//        G:\øÏ≈ÃÕ¯¬Á≥∑¿Î\whutddk\∑…Àºø®∂˚\LPLDV3.1\LPLD_OSKinetis_V3\project\freescale_cup(LDC)1.0\app\SENSOR\LDC1614.c
//    Command line =  
//        "G:\øÏ≈ÃÕ¯¬Á≥∑¿Î\whutddk\∑…Àºø®∂˚\LPLDV3.1\LPLD_OSKinetis_V3\project\freescale_cup(LDC)1.0\app\SENSOR\LDC1614.c"
//        -D LPLD_K60 -D USE_K60DZ10 -lCN
//        "G:\øÏ≈ÃÕ¯¬Á≥∑¿Î\whutddk\∑…Àºø®∂˚\LPLDV3.1\LPLD_OSKinetis_V3\project\freescale_cup(LDC)1.0\iar\FLASH\List\"
//        -lB
//        "G:\øÏ≈ÃÕ¯¬Á≥∑¿Î\whutddk\∑…Àºø®∂˚\LPLDV3.1\LPLD_OSKinetis_V3\project\freescale_cup(LDC)1.0\iar\FLASH\List\"
//        -o
//        "G:\øÏ≈ÃÕ¯¬Á≥∑¿Î\whutddk\∑…Àºø®∂˚\LPLDV3.1\LPLD_OSKinetis_V3\project\freescale_cup(LDC)1.0\iar\FLASH\Obj\"
//        --no_cse --no_unroll --no_inline --no_code_motion --no_tbaa
//        --no_clustering --no_scheduling --debug --endian=little
//        --cpu=Cortex-M4 -e --fpu=None --dlib_config "D:\Program Files
//        (x86)\IAR Systems\Embedded Workbench
//        7.0\arm\INC\c\DLib_Config_Normal.h" -I
//        "G:\øÏ≈ÃÕ¯¬Á≥∑¿Î\whutddk\∑…Àºø®∂˚\LPLDV3.1\LPLD_OSKinetis_V3\project\freescale_cup(LDC)1.0\iar\..\app\"
//        -I
//        "G:\øÏ≈ÃÕ¯¬Á≥∑¿Î\whutddk\∑…Àºø®∂˚\LPLDV3.1\LPLD_OSKinetis_V3\project\freescale_cup(LDC)1.0\iar\..\app\MAIN\"
//        -I
//        "G:\øÏ≈ÃÕ¯¬Á≥∑¿Î\whutddk\∑…Àºø®∂˚\LPLDV3.1\LPLD_OSKinetis_V3\project\freescale_cup(LDC)1.0\iar\..\app\BSP\"
//        -I
//        "G:\øÏ≈ÃÕ¯¬Á≥∑¿Î\whutddk\∑…Àºø®∂˚\LPLDV3.1\LPLD_OSKinetis_V3\project\freescale_cup(LDC)1.0\iar\..\app\CTL\"
//        -I
//        "G:\øÏ≈ÃÕ¯¬Á≥∑¿Î\whutddk\∑…Àºø®∂˚\LPLDV3.1\LPLD_OSKinetis_V3\project\freescale_cup(LDC)1.0\iar\..\app\sensor\"
//        -I
//        "G:\øÏ≈ÃÕ¯¬Á≥∑¿Î\whutddk\∑…Àºø®∂˚\LPLDV3.1\LPLD_OSKinetis_V3\project\freescale_cup(LDC)1.0\iar\..\app\ITAC\"
//        -I
//        "G:\øÏ≈ÃÕ¯¬Á≥∑¿Î\whutddk\∑…Àºø®∂˚\LPLDV3.1\LPLD_OSKinetis_V3\project\freescale_cup(LDC)1.0\iar\..\..\..\lib\CPU\"
//        -I
//        "G:\øÏ≈ÃÕ¯¬Á≥∑¿Î\whutddk\∑…Àºø®∂˚\LPLDV3.1\LPLD_OSKinetis_V3\project\freescale_cup(LDC)1.0\iar\..\..\..\lib\common\"
//        -I
//        "G:\øÏ≈ÃÕ¯¬Á≥∑¿Î\whutddk\∑…Àºø®∂˚\LPLDV3.1\LPLD_OSKinetis_V3\project\freescale_cup(LDC)1.0\iar\..\..\..\lib\LPLD\"
//        -I
//        "G:\øÏ≈ÃÕ¯¬Á≥∑¿Î\whutddk\∑…Àºø®∂˚\LPLDV3.1\LPLD_OSKinetis_V3\project\freescale_cup(LDC)1.0\iar\..\..\..\lib\LPLD\HW\"
//        -I
//        "G:\øÏ≈ÃÕ¯¬Á≥∑¿Î\whutddk\∑…Àºø®∂˚\LPLDV3.1\LPLD_OSKinetis_V3\project\freescale_cup(LDC)1.0\iar\..\..\..\lib\LPLD\DEV\"
//        -I
//        "G:\øÏ≈ÃÕ¯¬Á≥∑¿Î\whutddk\∑…Àºø®∂˚\LPLDV3.1\LPLD_OSKinetis_V3\project\freescale_cup(LDC)1.0\iar\..\..\..\lib\LPLD\FUNC\"
//        -I
//        "G:\øÏ≈ÃÕ¯¬Á≥∑¿Î\whutddk\∑…Àºø®∂˚\LPLDV3.1\LPLD_OSKinetis_V3\project\freescale_cup(LDC)1.0\iar\..\..\..\lib\uCOS-II\Ports\"
//        -I
//        "G:\øÏ≈ÃÕ¯¬Á≥∑¿Î\whutddk\∑…Àºø®∂˚\LPLDV3.1\LPLD_OSKinetis_V3\project\freescale_cup(LDC)1.0\iar\..\..\..\lib\uCOS-II\Source\"
//        -I
//        "G:\øÏ≈ÃÕ¯¬Á≥∑¿Î\whutddk\∑…Àºø®∂˚\LPLDV3.1\LPLD_OSKinetis_V3\project\freescale_cup(LDC)1.0\iar\..\..\..\lib\FatFs\"
//        -I
//        "G:\øÏ≈ÃÕ¯¬Á≥∑¿Î\whutddk\∑…Àºø®∂˚\LPLDV3.1\LPLD_OSKinetis_V3\project\freescale_cup(LDC)1.0\iar\..\..\..\lib\FatFs\option\"
//        -I
//        "G:\øÏ≈ÃÕ¯¬Á≥∑¿Î\whutddk\∑…Àºø®∂˚\LPLDV3.1\LPLD_OSKinetis_V3\project\freescale_cup(LDC)1.0\iar\..\..\..\lib\USB\common\"
//        -I
//        "G:\øÏ≈ÃÕ¯¬Á≥∑¿Î\whutddk\∑…Àºø®∂˚\LPLDV3.1\LPLD_OSKinetis_V3\project\freescale_cup(LDC)1.0\iar\..\..\..\lib\USB\driver\"
//        -I
//        "G:\øÏ≈ÃÕ¯¬Á≥∑¿Î\whutddk\∑…Àºø®∂˚\LPLDV3.1\LPLD_OSKinetis_V3\project\freescale_cup(LDC)1.0\iar\..\..\..\lib\USB\descriptor\"
//        -I
//        "G:\øÏ≈ÃÕ¯¬Á≥∑¿Î\whutddk\∑…Àºø®∂˚\LPLDV3.1\LPLD_OSKinetis_V3\project\freescale_cup(LDC)1.0\iar\..\..\..\lib\USB\class\"
//        -On -I "D:\Program Files (x86)\IAR Systems\Embedded Workbench
//        7.0\arm\CMSIS\Include\" -D ARM_MATH_CM4
//    List file    =  
//        G:\øÏ≈ÃÕ¯¬Á≥∑¿Î\whutddk\∑…Àºø®∂˚\LPLDV3.1\LPLD_OSKinetis_V3\project\freescale_cup(LDC)1.0\iar\FLASH\List\LDC1614.s
//
///////////////////////////////////////////////////////////////////////////////

        #define SHT_PROGBITS 0x1

        EXTERN LDC_READ
        EXTERN LDC_SEND
        EXTERN `push`

        PUBLIC FIRST_RUN
        PUBLIC INST_AVG_POWER
        PUBLIC LDC1614_button_press_IIR_algorithm
        PUBLIC LDC1614_button_press_running_average_algorithm
        PUBLIC LDC1614_init
        PUBLIC LDC1614_read_meas
        PUBLIC LDC1614_reset
        PUBLIC LDC1614_sleep
        PUBLIC LDC1614_start_meas
        PUBLIC LDC1614_status
        PUBLIC LDC_CH0_DATA
        PUBLIC LDC_CH0_ERRORS
        PUBLIC LDC_CH0_INST_AVG
        PUBLIC LDC_CH0_PUSH
        PUBLIC LDC_CH0_SLOW_AVG
        PUBLIC LDC_CH0_SUM_1
        PUBLIC LDC_CH0_SUM_2
        PUBLIC LDC_CH0_THRESHOLD_1
        PUBLIC LDC_CH0_THRESHOLD_2
        PUBLIC LDC_CH0_THR_1
        PUBLIC LDC_CH0_THR_2
        PUBLIC LDC_CH1_DATA
        PUBLIC LDC_CH1_ERRORS
        PUBLIC LDC_CH1_INST_AVG
        PUBLIC LDC_CH1_PUSH
        PUBLIC LDC_CH1_SLOW_AVG
        PUBLIC LDC_CH1_SUM_1
        PUBLIC LDC_CH1_SUM_2
        PUBLIC LDC_CH1_THRESHOLD_1
        PUBLIC LDC_CH1_THRESHOLD_2
        PUBLIC LDC_CH1_THR_1
        PUBLIC LDC_CH1_THR_2
        PUBLIC LDC_CH2_DATA
        PUBLIC LDC_CH2_ERRORS
        PUBLIC LDC_CH2_INST_AVG
        PUBLIC LDC_CH2_PUSH
        PUBLIC LDC_CH2_SLOW_AVG
        PUBLIC LDC_CH2_SUM_1
        PUBLIC LDC_CH2_SUM_2
        PUBLIC LDC_CH2_THRESHOLD_1
        PUBLIC LDC_CH2_THRESHOLD_2
        PUBLIC LDC_CH2_THR_1
        PUBLIC LDC_CH2_THR_2
        PUBLIC LDC_CH3_DATA
        PUBLIC LDC_CH3_ERRORS
        PUBLIC LDC_CH3_INST_AVG
        PUBLIC LDC_CH3_PUSH
        PUBLIC LDC_CH3_SLOW_AVG
        PUBLIC LDC_CH3_SUM_1
        PUBLIC LDC_CH3_SUM_2
        PUBLIC LDC_CH3_THRESHOLD_1
        PUBLIC LDC_CH3_THRESHOLD_2
        PUBLIC LDC_CH3_THR_1
        PUBLIC LDC_CH3_THR_2
        PUBLIC LDC_STATUS
        PUBLIC LDC_data
        PUBLIC LDC_flag
        PUBLIC RUNNING_AVG_INDEX1
        PUBLIC RUNNING_AVG_INDEX2
        PUBLIC SLOW_AVG_POWER

// G:\øÏ≈ÃÕ¯¬Á≥∑¿Î\whutddk\∑…Àºø®∂˚\LPLDV3.1\LPLD_OSKinetis_V3\project\freescale_cup(LDC)1.0\app\SENSOR\LDC1614.c
//    1 /*!
//    2 * \file LDC1614.c
//    3 *
//    4 * Copyright (c) 2014-2015, Texas Instruments Incorporated - http://www.ti.com
//    5 * All rights reserved.
//    6 */
//    7 
//    8 //*****************************************************************************
//    9 // #includes
//   10 //*****************************************************************************
//   11 #include "include.h"
//   12 
//   13 

        SECTION `.bss`:DATA:REORDER:NOROOT(2)
//   14 uint32 LDC_data[4] = {0};
LDC_data:
        DS8 16

        SECTION `.bss`:DATA:REORDER:NOROOT(1)
//   15 uint16 LDC_STATUS = 0;
LDC_STATUS:
        DS8 2

        SECTION `.bss`:DATA:REORDER:NOROOT(2)
//   16 uint8 LDC_flag[4] = {0};
LDC_flag:
        DS8 4
//   17 
//   18 
//   19 
//   20 
//   21 //*****************************************************************************
//   22 // Global Variables
//   23 //*****************************************************************************
//   24 extern uint8_t 	i2c_transmitCounter;		//Variable to store transmit status for I2C
//   25 extern uint8_t 	*p_i2c_transmitData;		//Pointer to I2C transmit data
//   26 extern uint8_t 	i2c_receiveCounter;			//Variable to store receive status for I2C
//   27 extern uint8_t 	*p_i2c_receivedData;		//Pointer to I2C received data
//   28 
//   29 //static uint8_t LDC_STATUS_BUF[2] = {0};		//Variable to store LDC STATUS register
//   30 //static uint8_t LDC_CH0_MSB_BUF[2] = {0};	//Variable to store LDC CH0 data
//   31 //static uint8_t LDC_CH0_LSB_BUF[2] = {0};	//Variable to store LDC CH0 data
//   32 //static uint8_t LDC_CH1_MSB_BUF[2] = {0};	//Variable to store LDC CH1 data
//   33 //static uint8_t LDC_CH1_LSB_BUF[2] = {0};	//Variable to store LDC CH1 data
//   34 //static uint8_t LDC_CH2_MSB_BUF[2] = {0};	//Variable to store LDC CH2 data
//   35 //static uint8_t LDC_CH2_LSB_BUF[2] = {0};	//Variable to store LDC CH2 data
//   36 //static uint8_t LDC_CH3_MSB_BUF[2] = {0};	//Variable to store LDC CH3 data
//   37 //static uint8_t LDC_CH3_LSB_BUF[2] = {0};	//Variable to store LDC CH3 data
//   38 
//   39 /*! \var INST_AVG_POWER
//   40 * \brief Variable to hold instant average filter length (yields 2^4 = 16 samples for INST_AVG)
//   41 */

        SECTION `.data`:DATA:REORDER:NOROOT(0)
//   42 uint8_t INST_AVG_POWER = 4;
INST_AVG_POWER:
        DATA
        DC8 4
//   43 /*! \var SLOW_AVG_POWER
//   44 * \brief Variable to hold slow average filter length (yields (2^4)*2^8 = 4096 samples for SLOW_AVG)
//   45 */

        SECTION `.data`:DATA:REORDER:NOROOT(0)
//   46 uint8_t SLOW_AVG_POWER = 8;
SLOW_AVG_POWER:
        DATA
        DC8 8
//   47 
//   48 /*! \var LDC_CH0_DATA
//   49 * \brief Variable to store LDC CH0 data */

        SECTION `.bss`:DATA:REORDER:NOROOT(2)
//   50 uint32_t 	LDC_CH0_DATA = 0;
LDC_CH0_DATA:
        DS8 4
//   51 /*! \var LDC_CH1_DATA
//   52 * \brief Variable to store LDC CH1 data */

        SECTION `.bss`:DATA:REORDER:NOROOT(2)
//   53 uint32_t 	LDC_CH1_DATA = 0;
LDC_CH1_DATA:
        DS8 4
//   54 /*! \var LDC_CH2_DATA
//   55 * \brief Variable to store LDC CH2 data */

        SECTION `.bss`:DATA:REORDER:NOROOT(2)
//   56 uint32_t	LDC_CH2_DATA = 0;
LDC_CH2_DATA:
        DS8 4
//   57 /*! \var LDC_CH3_DATA
//   58 * \brief Variable to store LDC CH3 data */

        SECTION `.bss`:DATA:REORDER:NOROOT(2)
//   59 uint32_t	LDC_CH3_DATA = 0;
LDC_CH3_DATA:
        DS8 4
//   60 
//   61 /*! \var LDC_CH0_ERRORS
//   62 * \brief Variable to store LDC CH0 error flags */

        SECTION `.bss`:DATA:REORDER:NOROOT(0)
//   63 uint8_t		LDC_CH0_ERRORS = 0;
LDC_CH0_ERRORS:
        DS8 1
//   64 /*! \var LDC_CH1_ERRORS
//   65 * \brief Variable to store LDC CH1 error flags */

        SECTION `.bss`:DATA:REORDER:NOROOT(0)
//   66 uint8_t		LDC_CH1_ERRORS = 0;
LDC_CH1_ERRORS:
        DS8 1
//   67 /*! \var LDC_CH2_ERRORS
//   68 * \brief Variable to store LDC CH2 error flags */

        SECTION `.bss`:DATA:REORDER:NOROOT(0)
//   69 uint8_t		LDC_CH2_ERRORS = 0;
LDC_CH2_ERRORS:
        DS8 1
//   70 /*! \var LDC_CH3_ERRORS
//   71 * \brief Variable to store LDC CH3 error flags */

        SECTION `.bss`:DATA:REORDER:NOROOT(0)
//   72 uint8_t		LDC_CH3_ERRORS = 0;
LDC_CH3_ERRORS:
        DS8 1
//   73 
//   74 /*! \var LDC_CH0_PUSH
//   75 * \brief Variable to store LDC CH0 button push flag */

        SECTION `.bss`:DATA:REORDER:NOROOT(0)
//   76 uint8_t		LDC_CH0_PUSH = 0;
LDC_CH0_PUSH:
        DS8 1
//   77 /*! \var LDC_CH1_PUSH
//   78 * \brief Variable to store LDC CH1 button push flag */

        SECTION `.bss`:DATA:REORDER:NOROOT(0)
//   79 uint8_t		LDC_CH1_PUSH = 0;
LDC_CH1_PUSH:
        DS8 1
//   80 /*! \var LDC_CH2_PUSH
//   81 * \brief Variable to store LDC CH2 button push flag */

        SECTION `.bss`:DATA:REORDER:NOROOT(0)
//   82 uint8_t		LDC_CH2_PUSH = 0;
LDC_CH2_PUSH:
        DS8 1
//   83 /*! \var LDC_CH3_PUSH
//   84 * \brief Variable to store LDC CH3 button push flag */

        SECTION `.bss`:DATA:REORDER:NOROOT(0)
//   85 uint8_t		LDC_CH3_PUSH = 0;
LDC_CH3_PUSH:
        DS8 1
//   86 
//   87 /*! \var FIRST_RUN
//   88 * \brief Variable to flag if algorithm has been run at all */

        SECTION `.data`:DATA:REORDER:NOROOT(0)
//   89 uint8_t		FIRST_RUN = 1;
FIRST_RUN:
        DATA
        DC8 1
//   90 
//   91 /*! \var RUNNING_AVG_INDEX1
//   92 * \brief Variable to store first running avg index */

        SECTION `.bss`:DATA:REORDER:NOROOT(0)
//   93 uint8_t		RUNNING_AVG_INDEX1 = 0;
RUNNING_AVG_INDEX1:
        DS8 1
//   94 /*! \var RUNNING_AVG_INDEX2
//   95 * \brief Variable to store second running avg index */

        SECTION `.bss`:DATA:REORDER:NOROOT(0)
//   96 uint8_t		RUNNING_AVG_INDEX2 = 0;
RUNNING_AVG_INDEX2:
        DS8 1
//   97 
//   98 /*! \var LDC_CH0_SUM_1
//   99 * \brief Variable to store inst. running avg. sum */

        SECTION `.bss`:DATA:REORDER:NOROOT(2)
//  100 uint32_t LDC_CH0_SUM_1 = 0;
LDC_CH0_SUM_1:
        DS8 4
//  101 /*! \var LDC_CH0_SUM_2
//  102 * \brief Variable to store slow running avg. sum */

        SECTION `.bss`:DATA:REORDER:NOROOT(2)
//  103 uint32_t LDC_CH0_SUM_2 = 0;
LDC_CH0_SUM_2:
        DS8 4
//  104 /*! \var LDC_CH0_INST_AVG
//  105 * \brief Variable to store inst. running avg. value */

        SECTION `.bss`:DATA:REORDER:NOROOT(2)
//  106 uint32_t LDC_CH0_INST_AVG = 0;
LDC_CH0_INST_AVG:
        DS8 4
//  107 /*! \var LDC_CH0_SLOW_AVG
//  108 * \brief Variable to store slow running avg. value */

        SECTION `.bss`:DATA:REORDER:NOROOT(2)
//  109 uint32_t LDC_CH0_SLOW_AVG = 0;
LDC_CH0_SLOW_AVG:
        DS8 4
//  110 /*! \var LDC_CH0_THRESHOLD_1
//  111 * \brief Variable to store threshold 1 compare value */

        SECTION `.bss`:DATA:REORDER:NOROOT(2)
//  112 uint32_t LDC_CH0_THRESHOLD_1 = 0;
LDC_CH0_THRESHOLD_1:
        DS8 4
//  113 /*! \var LDC_CH0_THR_1
//  114 * \brief Variable to store threshold 1 value; should be half of delta_code when button pressed;
//  115 * adjust to desired button sensitivity */

        SECTION `.data`:DATA:REORDER:NOROOT(2)
//  116 uint32_t LDC_CH0_THR_1 = 3000;
LDC_CH0_THR_1:
        DATA
        DC32 3000
//  117 /*! \var LDC_CH0_THRESHOLD_2
//  118 * \brief Variable to store threshold 2 compare value */

        SECTION `.bss`:DATA:REORDER:NOROOT(2)
//  119 uint32_t LDC_CH0_THRESHOLD_2 = 0;
LDC_CH0_THRESHOLD_2:
        DS8 4
//  120 /*! \var LDC_CH0_THR_2
//  121 * \brief Variable to store threshold 2 value; should be half of delta_code when button pressed;
//  122 * adjust to desired button sensitivity */

        SECTION `.data`:DATA:REORDER:NOROOT(2)
//  123 uint32_t LDC_CH0_THR_2 = 10000;
LDC_CH0_THR_2:
        DATA
        DC32 10000
//  124 
//  125 /*! \var LDC_CH1_SUM_1
//  126 * \brief Variable to store inst. running avg. sum */

        SECTION `.bss`:DATA:REORDER:NOROOT(2)
//  127 uint32_t LDC_CH1_SUM_1 = 0;
LDC_CH1_SUM_1:
        DS8 4
//  128 /*! \var LDC_CH1_SUM_2
//  129 * \brief Variable to store slow running avg. sum */

        SECTION `.bss`:DATA:REORDER:NOROOT(2)
//  130 uint32_t LDC_CH1_SUM_2 = 0;
LDC_CH1_SUM_2:
        DS8 4
//  131 /*! \var LDC_CH1_INST_AVG
//  132 * \brief Variable to store inst. running avg. value */

        SECTION `.bss`:DATA:REORDER:NOROOT(2)
//  133 uint32_t LDC_CH1_INST_AVG = 0;
LDC_CH1_INST_AVG:
        DS8 4
//  134 /*! \var LDC_CH1_SLOW_AVG
//  135 * \brief Variable to store slow running avg. value */

        SECTION `.bss`:DATA:REORDER:NOROOT(2)
//  136 uint32_t LDC_CH1_SLOW_AVG = 0;
LDC_CH1_SLOW_AVG:
        DS8 4
//  137 /*! \var LDC_CH1_THRESHOLD_1
//  138 * \brief Variable to store threshold 1 compare value */

        SECTION `.bss`:DATA:REORDER:NOROOT(2)
//  139 uint32_t LDC_CH1_THRESHOLD_1 = 0;
LDC_CH1_THRESHOLD_1:
        DS8 4
//  140 /*! \var LDC_CH1_THR_1
//  141 * \brief Variable to store threshold 1 value; should be half of delta_code when button pressed;
//  142 * adjust to desired button sensitivity */

        SECTION `.data`:DATA:REORDER:NOROOT(2)
//  143 uint32_t LDC_CH1_THR_1 = 3000;
LDC_CH1_THR_1:
        DATA
        DC32 3000
//  144 /*! \var LDC_CH1_THRESHOLD_2
//  145 * \brief Variable to store threshold 2 compare value */

        SECTION `.bss`:DATA:REORDER:NOROOT(2)
//  146 uint32_t LDC_CH1_THRESHOLD_2 = 0;
LDC_CH1_THRESHOLD_2:
        DS8 4
//  147 /*! \var LDC_CH1_THR_2
//  148 * \brief Variable to store threshold 2 value */

        SECTION `.data`:DATA:REORDER:NOROOT(2)
//  149 uint32_t LDC_CH1_THR_2 = 10000;
LDC_CH1_THR_2:
        DATA
        DC32 10000
//  150 
//  151 /*! \var LDC_CH2_SUM_1
//  152 * \brief Variable to store inst. running avg. sum */

        SECTION `.bss`:DATA:REORDER:NOROOT(2)
//  153 uint32_t LDC_CH2_SUM_1 = 0;
LDC_CH2_SUM_1:
        DS8 4
//  154 /*! \var LDC_CH2_SUM_2
//  155 * \brief Variable to store slow running avg. sum */

        SECTION `.bss`:DATA:REORDER:NOROOT(2)
//  156 uint32_t LDC_CH2_SUM_2 = 0;
LDC_CH2_SUM_2:
        DS8 4
//  157 /*! \var LDC_CH2_INST_AVG
//  158 * \brief Variable to store inst. running avg. value */

        SECTION `.bss`:DATA:REORDER:NOROOT(2)
//  159 uint32_t LDC_CH2_INST_AVG = 0;
LDC_CH2_INST_AVG:
        DS8 4
//  160 /*! \var LDC_CH2_SLOW_AVG
//  161 * \brief Variable to store slow running avg. value */

        SECTION `.bss`:DATA:REORDER:NOROOT(2)
//  162 uint32_t LDC_CH2_SLOW_AVG = 0;
LDC_CH2_SLOW_AVG:
        DS8 4
//  163 /*! \var LDC_CH2_THRESHOLD_1
//  164 * \brief Variable to store threshold 1 compare value */

        SECTION `.bss`:DATA:REORDER:NOROOT(2)
//  165 uint32_t LDC_CH2_THRESHOLD_1 = 0;
LDC_CH2_THRESHOLD_1:
        DS8 4
//  166 /*! \var LDC_CH2_THR_1
//  167 * \brief Variable to store threshold 1 value; should be half of delta_code when button pressed;
//  168 * adjust to desired button sensitivity */

        SECTION `.data`:DATA:REORDER:NOROOT(2)
//  169 uint32_t LDC_CH2_THR_1 = 10000;
LDC_CH2_THR_1:
        DATA
        DC32 10000
//  170 /*! \var LDC_CH2_THRESHOLD_2
//  171 * \brief Variable to store threshold 2 compare value */

        SECTION `.bss`:DATA:REORDER:NOROOT(2)
//  172 uint32_t LDC_CH2_THRESHOLD_2 = 0;
LDC_CH2_THRESHOLD_2:
        DS8 4
//  173 /*! \var LDC_CH2_THR_2
//  174 * \brief Variable to store threshold 2 value; should be half of delta_code when button pressed;
//  175 * adjust to desired button sensitivity */

        SECTION `.data`:DATA:REORDER:NOROOT(2)
//  176 uint32_t LDC_CH2_THR_2 = 40000;
LDC_CH2_THR_2:
        DATA
        DC32 40000
//  177 
//  178 /*! \var LDC_CH3_SUM_1
//  179 * \brief Variable to store inst. running avg. sum */

        SECTION `.bss`:DATA:REORDER:NOROOT(2)
//  180 uint32_t LDC_CH3_SUM_1 = 0;
LDC_CH3_SUM_1:
        DS8 4
//  181 /*! \var LDC_CH3_SUM_2
//  182 * \brief Variable to store slow running avg. sum */

        SECTION `.bss`:DATA:REORDER:NOROOT(2)
//  183 uint32_t LDC_CH3_SUM_2 = 0;
LDC_CH3_SUM_2:
        DS8 4
//  184 /*! \var LDC_CH3_INST_AVG
//  185 * \brief Variable to store inst. running avg. value */

        SECTION `.bss`:DATA:REORDER:NOROOT(2)
//  186 uint32_t LDC_CH3_INST_AVG = 0;
LDC_CH3_INST_AVG:
        DS8 4
//  187 /*! \var LDC_CH3_SLOW_AVG
//  188 * \brief Variable to store slow running avg. value */

        SECTION `.bss`:DATA:REORDER:NOROOT(2)
//  189 uint32_t LDC_CH3_SLOW_AVG = 0;
LDC_CH3_SLOW_AVG:
        DS8 4
//  190 /*! \var LDC_CH3_THRESHOLD_1
//  191 * \brief Variable to store threshold 1 compare value */

        SECTION `.bss`:DATA:REORDER:NOROOT(2)
//  192 uint32_t LDC_CH3_THRESHOLD_1 = 0;
LDC_CH3_THRESHOLD_1:
        DS8 4
//  193 /*! \var LDC_CH3_THR_1
//  194 * \brief Variable to store threshold 1 value; should be half of delta_code when button pressed;
//  195 * adjust to desired button sensitivity */

        SECTION `.data`:DATA:REORDER:NOROOT(2)
//  196 uint32_t LDC_CH3_THR_1 = 4000;
LDC_CH3_THR_1:
        DATA
        DC32 4000
//  197 /*! \var LDC_CH3_THRESHOLD_2
//  198 * \brief Variable to store threshold 2 compare value */

        SECTION `.bss`:DATA:REORDER:NOROOT(2)
//  199 uint32_t LDC_CH3_THRESHOLD_2 = 0;
LDC_CH3_THRESHOLD_2:
        DS8 4
//  200 /*! \var LDC_CH3_THR_2
//  201 * \brief Variable to store threshold 2 value; should be half of delta_code when button pressed;
//  202 * adjust to desired button sensitivity */

        SECTION `.data`:DATA:REORDER:NOROOT(2)
//  203 uint32_t LDC_CH3_THR_2 = 20000;
LDC_CH3_THR_2:
        DATA
        DC32 20000
//  204 
//  205 //*****************************************************************************
//  206 // LDC1614 Library functions
//  207 //*****************************************************************************

        SECTION `.text`:CODE:NOROOT(1)
        THUMB
//  208 void LDC1614_sleep(void)
//  209 {
LDC1614_sleep:
        PUSH     {R7,LR}
//  210   
//  211 //  static const uint8_t LDC1614_CONFIG_FRAME[3] =
//  212 //  {
//  213 //    CONFIG,	//CONFIG register address
//  214 //    0x26,	//MSB of CONFIG (put device in sleep mode)
//  215 //    0x01	//LSB of CONFIG
//  216 //  };
//  217 //  
//  218 //  //Transmit array start address
//  219 //  p_i2c_transmitData = (uint8_t *)LDC1614_CONFIG_FRAME;
//  220 //  //Load transmit byte counter
//  221 //  i2c_transmitCounter = sizeof LDC1614_CONFIG_FRAME;
//  222 //  
//  223 //  //Perform I2C write
//  224 //  i2c_write(LDC1614_ADDRESS);
//  225   LDC_SEND(CONFIG,0x2601);
        MOVW     R1,#+9729
        MOVS     R0,#+26
        BL       LDC_SEND
//  226 }
        POP      {R0,PC}          ;; return
//  227 

        SECTION `.text`:CODE:NOROOT(1)
        THUMB
//  228 void LDC1614_init(void)
//  229 {
LDC1614_init:
        PUSH     {R7,LR}
//  230 //  
//  231 //  static const uint8_t LDC1614_REF_COUNT_CH0_FRAME[3] =
//  232 //  {
//  233 //    REF_COUNT_CH0,	//REF_COUNT_CH0 register address
//  234 //    0x04,			//MSB of REF_COUNT_CH0 (sets count to 1024)
//  235 //    0x00			//LSB of REF_COUNT_CH0
//  236 //  };
//  237 //  
//  238 //  static const uint8_t LDC1614_REF_COUNT_CH1_FRAME[3] =
//  239 //  {
//  240 //    REF_COUNT_CH1,	//REF_COUNT_CH1 register address
//  241 //    0x04,			//MSB of REF_COUNT_CH1 (sets count to 1024)
//  242 //    0x00			//LSB of REF_COUNT_CH1
//  243 //  };
//  244 //  
//  245 //  static const uint8_t LDC1614_REF_COUNT_CH2_FRAME[3] =
//  246 //  {
//  247 //    REF_COUNT_CH2,	//REF_COUNT_CH2 register address
//  248 //    0x04,			//MSB of REF_COUNT_CH2 (sets count to 1024)
//  249 //    0x00			//LSB of REF_COUNT_CH2
//  250 //  };
//  251 //  
//  252 //  static const uint8_t LDC1614_REF_COUNT_CH3_FRAME[3] =
//  253 //  {
//  254 //    REF_COUNT_CH3,	//REF_COUNT_CH3 register address
//  255 //    0x04,			//MSB of REF_COUNT_CH3 (sets count to 1024)
//  256 //    0x00			//LSB of REF_COUNT_CH3
//  257 //  };
//  258 //  
//  259 //  static const uint8_t LDC1614_OFFSET_CH0_FRAME[3] =
//  260 //  {
//  261 //    OFFSET_CH0,		//OFFSET_CH0 register address
//  262 //    0x00,			//MSB of OFFSET_CH0
//  263 //    0x00			//LSB of OFFSET_CH0
//  264 //  };
//  265 //  
//  266 //  static const uint8_t LDC1614_OFFSET_CH1_FRAME[3] =
//  267 //  {
//  268 //    OFFSET_CH1,		//OFFSET_CH1 register address
//  269 //    0x00,			//MSB of OFFSET_CH1
//  270 //    0x00			//LSB of OFFSET_CH1
//  271 //  };
//  272 //  
//  273 //  static const uint8_t LDC1614_OFFSET_CH2_FRAME[3] =
//  274 //  {
//  275 //    OFFSET_CH2,		//OFFSET_CH2 register address
//  276 //    0x00,			//MSB of OFFSET_CH2
//  277 //    0x00			//LSB of OFFSET_CH2
//  278 //  };
//  279 //  
//  280 //  static const uint8_t LDC1614_OFFSET_CH3_FRAME[3] =
//  281 //  {
//  282 //    OFFSET_CH3,		//OFFSET_CH3 register address
//  283 //    0x00,			//MSB of OFFSET_CH3
//  284 //    0x00			//LSB of OFFSET_CH3
//  285 //  };
//  286 //  
//  287 //  static const uint8_t LDC1614_SETTLECOUNT_CH0_FRAME[3] =
//  288 //  {
//  289 //    SETTLECOUNT_CH0,	//SETTLECOUNT_CH0 register address
//  290 //    0x00,				//MSB of SETTLECOUNT_CH0 (set settle count to 128)
//  291 //    0x80				//LSB of SETTLECOUNT_CH0
//  292 //  };
//  293 //  
//  294 //  static const uint8_t LDC1614_SETTLECOUNT_CH1_FRAME[3] =
//  295 //  {
//  296 //    SETTLECOUNT_CH1,	//SETTLECOUNT_CH1 register address
//  297 //    0x00,				//MSB of SETTLECOUNT_CH1 (set settle count to 128)
//  298 //    0x80				//LSB of SETTLECOUNT_CH1
//  299 //  };
//  300 //  
//  301 //  static const uint8_t LDC1614_SETTLECOUNT_CH2_FRAME[3] =
//  302 //  {
//  303 //    SETTLECOUNT_CH2,	//SETTLECOUNT_CH2 register address
//  304 //    0x00,				//MSB of SETTLECOUNT_CH2 (set settle count to 128)
//  305 //    0x80				//LSB of SETTLECOUNT_CH2
//  306 //  };
//  307 //  
//  308 //  static const uint8_t LDC1614_SETTLECOUNT_CH3_FRAME[3] =
//  309 //  {
//  310 //    SETTLECOUNT_CH3,	//SETTLECOUNT_CH3 register address
//  311 //    0x00,				//MSB of SETTLECOUNT_CH3 (set settle count to 128)
//  312 //    0x80				//LSB of SETTLECOUNT_CH3
//  313 //  };
//  314 //  
//  315 //  static const uint8_t LDC1614_CLOCK_DIVIDERS_CH0_FRAME[3] =
//  316 //  {
//  317 //    CLOCK_DIVIDERS_CH0,	//CLOCK_DIVIDERS_CH0 register address
//  318 //    0x80,				//MSB of CLOCK_DIVIDERS_CH0 (set F_IN divider = 8)
//  319 //    0x01				//LSB of CLOCK_DIVIDERS_CH0 (set F_REF divider = 1)
//  320 //  };
//  321 //  
//  322 //  static const uint8_t LDC1614_CLOCK_DIVIDERS_CH1_FRAME[3] =
//  323 //  {
//  324 //    CLOCK_DIVIDERS_CH1,	//CLOCK_DIVIDERS_CH1 register address
//  325 //    0x80,				//MSB of CLOCK_DIVIDERS_CH1 (set F_IN divider = 8)
//  326 //    0x01				//LSB of CLOCK_DIVIDERS_CH1 (set F_REF divider = 1)
//  327 //  };
//  328 //  
//  329 //  static const uint8_t LDC1614_CLOCK_DIVIDERS_CH2_FRAME[3] =
//  330 //  {
//  331 //    CLOCK_DIVIDERS_CH2,	//CLOCK_DIVIDERS_CH2 register address
//  332 //    0x20,				//MSB of CLOCK_DIVIDERS_CH2 (set F_IN divider = 2)
//  333 //    0x01				//LSB of CLOCK_DIVIDERS_CH2 (set F_REF divider = 1)
//  334 //  };
//  335 //  
//  336 //  static const uint8_t LDC1614_CLOCK_DIVIDERS_CH3_FRAME[3] =
//  337 //  {
//  338 //    CLOCK_DIVIDERS_CH3,	//CLOCK_DIVIDERS_CH3 register address
//  339 //    0x80,				//MSB of CLOCK_DIVIDERS_CH3 (set F_IN divider = 8)
//  340 //    0x01				//LSB of CLOCK_DIVIDERS_CH3 (set F_REF divider = 1)
//  341 //  };
//  342 //  
//  343 //  static const uint8_t LDC1614_ERROR_CONFIG_FRAME[3] =
//  344 //  {
//  345 //    ERROR_CONFIG,	//ERROR_CONFIG register address
//  346 //    0xF8,			//MSB of ERROR_CONFIG (sets error reporting in DATA register for under/over-range, WDT, Amplitude high/low)
//  347 //    0x01			//LSB of ERROR_CONFIG (sets Data Ready flag to INTB)
//  348 //  };
//  349 //  
//  350 //  static const uint8_t LDC1614_CONFIG_FRAME[3] =
//  351 //  {
//  352 //    CONFIG,		//CONFIG register address
//  353 //    0x26,		//MSB of CONFIG (sets sleep mode, f_ref = CLKIN, auto-amp. disabled)
//  354 //    0x01		//LSB of CONFIG
//  355 //  };
//  356 //  
//  357 //  static const uint8_t LDC1614_MUX_CONFIG_FRAME[3] =
//  358 //  {
//  359 //    MUX_CONFIG,	//MUX_CONFIG register address
//  360 //    0xC2,		//MSB of MUX_CONFIG (set to sequential scan on Ch0-3)
//  361 //    0x07		//LSB of MUX_CONFIG (sets de-glitch filter to 33 MHz)
//  362 //  };
//  363 //  
//  364 //  static const uint8_t LDC1614_DRIVE_CURRENT_CH0_FRAME[3] =
//  365 //  {
//  366 //    DRIVE_CURRENT_CH0,	//DRIVE_CURRENT_CH0 register address
//  367 //    0x00,				//MSB of DRIVE_CURRENT_CH0
//  368 //    0x00				//LSB of DRIVE_CURRENT_CH0
//  369 //  };
//  370 //  
//  371 //  static const uint8_t LDC1614_DRIVE_CURRENT_CH1_FRAME[3] =
//  372 //  {
//  373 //    DRIVE_CURRENT_CH1,	//DRIVE_CURRENT_CH1 register address
//  374 //    0x00,				//MSB of DRIVE_CURRENT_CH1
//  375 //    0x00				//LSB of DRIVE_CURRENT_CH1
//  376 //  };
//  377 //  
//  378 //  static const uint8_t LDC1614_DRIVE_CURRENT_CH2_FRAME[3] =
//  379 //  {
//  380 //    DRIVE_CURRENT_CH2,	//DRIVE_CURRENT_CH2 register address
//  381 //    0x00,				//MSB of DRIVE_CURRENT_CH2
//  382 //    0x00				//LSB of DRIVE_CURRENT_CH2
//  383 //  };
//  384 //  
//  385 //  static const uint8_t LDC1614_DRIVE_CURRENT_CH3_FRAME[3] =
//  386 //  {
//  387 //    DRIVE_CURRENT_CH3,	//DRIVE_CURRENT_CH3 register address
//  388 //    0x00,				//MSB of DRIVE_CURRENT_CH3
//  389 //    0x00				//LSB of DRIVE_CURRENT_CH3
//  390 //  };
//  391   
//  392 //  //Transmit array start address
//  393 //  p_i2c_transmitData = (uint8_t *)LDC1614_REF_COUNT_CH0_FRAME;
//  394 //  //Load transmit byte counter
//  395 //  i2c_transmitCounter = sizeof LDC1614_REF_COUNT_CH0_FRAME;
//  396 //  //Perform I2C write
//  397 //  i2c_write(LDC1614_ADDRESS);
//  398   
//  399   LDC_SEND(REF_COUNT_CH0,0x0400);
        MOV      R1,#+1024
        MOVS     R0,#+8
        BL       LDC_SEND
//  400   
//  401 //  //Transmit array start address
//  402 //  p_i2c_transmitData = (uint8_t *)LDC1614_REF_COUNT_CH1_FRAME;
//  403 //  //Load transmit byte counter
//  404 //  i2c_transmitCounter = sizeof LDC1614_REF_COUNT_CH1_FRAME;
//  405 //  //Perform I2C write
//  406 //  i2c_write(LDC1614_ADDRESS);
//  407   
//  408   LDC_SEND(REF_COUNT_CH1,0x0400);
        MOV      R1,#+1024
        MOVS     R0,#+9
        BL       LDC_SEND
//  409   
//  410 //  //Transmit array start address
//  411 //  p_i2c_transmitData = (uint8_t *)LDC1614_REF_COUNT_CH2_FRAME;
//  412 //  //Load transmit byte counter
//  413 //  i2c_transmitCounter = sizeof LDC1614_REF_COUNT_CH2_FRAME;
//  414 //  //Perform I2C write
//  415 //  i2c_write(LDC1614_ADDRESS);
//  416   
//  417   LDC_SEND(REF_COUNT_CH2,0x0400);
        MOV      R1,#+1024
        MOVS     R0,#+10
        BL       LDC_SEND
//  418   
//  419 //  //Transmit array start address
//  420 //  p_i2c_transmitData = (uint8_t *)LDC1614_REF_COUNT_CH3_FRAME;
//  421 //  //Load transmit byte counter
//  422 //  i2c_transmitCounter = sizeof LDC1614_REF_COUNT_CH3_FRAME;
//  423 //  //Perform I2C write
//  424 //  i2c_write(LDC1614_ADDRESS);
//  425   
//  426   LDC_SEND(REF_COUNT_CH3,0x0400);
        MOV      R1,#+1024
        MOVS     R0,#+11
        BL       LDC_SEND
//  427   
//  428 //  //Transmit array start address
//  429 //  p_i2c_transmitData = (uint8_t *)LDC1614_OFFSET_CH0_FRAME;
//  430 //  //Load transmit byte counter
//  431 //  i2c_transmitCounter = sizeof LDC1614_OFFSET_CH0_FRAME;
//  432 //  //Perform I2C write
//  433 //  i2c_write(LDC1614_ADDRESS);
//  434   
//  435   LDC_SEND(OFFSET_CH0,0x0000);
        MOVS     R1,#+0
        MOVS     R0,#+12
        BL       LDC_SEND
//  436   
//  437 //  //Transmit array start address
//  438 //  p_i2c_transmitData = (uint8_t *)LDC1614_OFFSET_CH1_FRAME;
//  439 //  //Load transmit byte counter
//  440 //  i2c_transmitCounter = sizeof LDC1614_OFFSET_CH1_FRAME;
//  441 //  //Perform I2C write
//  442 //  i2c_write(LDC1614_ADDRESS);
//  443   
//  444   LDC_SEND(OFFSET_CH1,0x0000);
        MOVS     R1,#+0
        MOVS     R0,#+13
        BL       LDC_SEND
//  445   
//  446     
//  447 //  //Transmit array start address
//  448 //  p_i2c_transmitData = (uint8_t *)LDC1614_OFFSET_CH2_FRAME;
//  449 //  //Load transmit byte counter
//  450 //  i2c_transmitCounter = sizeof LDC1614_OFFSET_CH2_FRAME;
//  451 //  //Perform I2C write
//  452 //  i2c_write(LDC1614_ADDRESS);
//  453   
//  454   LDC_SEND(OFFSET_CH2,0x0000);
        MOVS     R1,#+0
        MOVS     R0,#+14
        BL       LDC_SEND
//  455   
//  456 //  //Transmit array start address
//  457 //  p_i2c_transmitData = (uint8_t *)LDC1614_OFFSET_CH3_FRAME;
//  458 //  //Load transmit byte counter
//  459 //  i2c_transmitCounter = sizeof LDC1614_OFFSET_CH3_FRAME;
//  460 //  //Perform I2C write
//  461 //  i2c_write(LDC1614_ADDRESS);
//  462   
//  463   LDC_SEND(OFFSET_CH3,0x0000);
        MOVS     R1,#+0
        MOVS     R0,#+15
        BL       LDC_SEND
//  464   
//  465 //  //Transmit array start address
//  466 //  p_i2c_transmitData = (uint8_t *)LDC1614_SETTLECOUNT_CH0_FRAME;
//  467 //  //Load transmit byte counter
//  468 //  i2c_transmitCounter = sizeof LDC1614_SETTLECOUNT_CH0_FRAME;
//  469 //  //Perform I2C write
//  470 //  i2c_write(LDC1614_ADDRESS);
//  471   
//  472   LDC_SEND(SETTLECOUNT_CH0,0x0080);
        MOVS     R1,#+128
        MOVS     R0,#+16
        BL       LDC_SEND
//  473   
//  474 //  //Transmit array start address
//  475 //  p_i2c_transmitData = (uint8_t *)LDC1614_SETTLECOUNT_CH1_FRAME;
//  476 //  //Load transmit byte counter
//  477 //  i2c_transmitCounter = sizeof LDC1614_SETTLECOUNT_CH1_FRAME;
//  478 //  //Perform I2C write
//  479 //  i2c_write(LDC1614_ADDRESS);
//  480   
//  481   LDC_SEND(SETTLECOUNT_CH1,0x0080);
        MOVS     R1,#+128
        MOVS     R0,#+17
        BL       LDC_SEND
//  482   
//  483 //  //Transmit array start address
//  484 //  p_i2c_transmitData = (uint8_t *)LDC1614_SETTLECOUNT_CH2_FRAME;
//  485 //  //Load transmit byte counter
//  486 //  i2c_transmitCounter = sizeof LDC1614_SETTLECOUNT_CH2_FRAME;
//  487 //  //Perform I2C write
//  488 //  i2c_write(LDC1614_ADDRESS);
//  489   
//  490   LDC_SEND(SETTLECOUNT_CH2,0x0080);
        MOVS     R1,#+128
        MOVS     R0,#+18
        BL       LDC_SEND
//  491   
//  492 //  //Transmit array start address
//  493 //  p_i2c_transmitData = (uint8_t *)LDC1614_SETTLECOUNT_CH3_FRAME;
//  494 //  //Load transmit byte counter
//  495 //  i2c_transmitCounter = sizeof LDC1614_SETTLECOUNT_CH3_FRAME;
//  496 //  //Perform I2C write
//  497 //  i2c_write(LDC1614_ADDRESS);
//  498   
//  499   LDC_SEND(SETTLECOUNT_CH3,0x0080);
        MOVS     R1,#+128
        MOVS     R0,#+19
        BL       LDC_SEND
//  500   
//  501 //  //Transmit array start address
//  502 //  p_i2c_transmitData = (uint8_t *)LDC1614_CLOCK_DIVIDERS_CH0_FRAME;
//  503 //  //Load transmit byte counter
//  504 //  i2c_transmitCounter = sizeof LDC1614_CLOCK_DIVIDERS_CH0_FRAME;
//  505 //  //Perform I2C write
//  506 //  i2c_write(LDC1614_ADDRESS);
//  507   
//  508   LDC_SEND(CLOCK_DIVIDERS_CH0,0x8001);
        MOVW     R1,#+32769
        MOVS     R0,#+20
        BL       LDC_SEND
//  509   
//  510 //  //Transmit array start address
//  511 //  p_i2c_transmitData = (uint8_t *)LDC1614_CLOCK_DIVIDERS_CH1_FRAME;
//  512 //  //Load transmit byte counter
//  513 //  i2c_transmitCounter = sizeof LDC1614_CLOCK_DIVIDERS_CH1_FRAME;
//  514 //  //Perform I2C write
//  515 //  i2c_write(LDC1614_ADDRESS);
//  516   
//  517   LDC_SEND(CLOCK_DIVIDERS_CH1,0x8001);
        MOVW     R1,#+32769
        MOVS     R0,#+21
        BL       LDC_SEND
//  518   
//  519 //  //Transmit array start address
//  520 //  p_i2c_transmitData = (uint8_t *)LDC1614_CLOCK_DIVIDERS_CH2_FRAME;
//  521 //  //Load transmit byte counter
//  522 //  i2c_transmitCounter = sizeof LDC1614_CLOCK_DIVIDERS_CH2_FRAME;
//  523 //  //Perform I2C write
//  524 //  i2c_write(LDC1614_ADDRESS);
//  525   
//  526   LDC_SEND(CLOCK_DIVIDERS_CH2,0x8001);/*attention*/
        MOVW     R1,#+32769
        MOVS     R0,#+22
        BL       LDC_SEND
//  527   
//  528 //  //Transmit array start address
//  529 //  p_i2c_transmitData = (uint8_t *)LDC1614_CLOCK_DIVIDERS_CH3_FRAME;
//  530 //  //Load transmit byte counter
//  531 //  i2c_transmitCounter = sizeof LDC1614_CLOCK_DIVIDERS_CH3_FRAME;
//  532 //  //Perform I2C write
//  533 //  i2c_write(LDC1614_ADDRESS);
//  534   
//  535   LDC_SEND(CLOCK_DIVIDERS_CH3,0x8001);
        MOVW     R1,#+32769
        MOVS     R0,#+23
        BL       LDC_SEND
//  536   
//  537 //  //Transmit array start address
//  538 //  p_i2c_transmitData = (uint8_t *)LDC1614_ERROR_CONFIG_FRAME;
//  539 //  //Load transmit byte counter
//  540 //  i2c_transmitCounter = sizeof LDC1614_ERROR_CONFIG_FRAME;
//  541 //  //Perform I2C write
//  542 //  i2c_write(LDC1614_ADDRESS);
//  543   
//  544   LDC_SEND(ERROR_CONFIG,0xF801);
        MOVW     R1,#+63489
        MOVS     R0,#+25
        BL       LDC_SEND
//  545   
//  546 //  //Transmit array start address
//  547 //  p_i2c_transmitData = (uint8_t *)LDC1614_CONFIG_FRAME;
//  548 //  //Load transmit byte counter
//  549 //  i2c_transmitCounter = sizeof LDC1614_CONFIG_FRAME;
//  550 //  //Perform I2C write
//  551 //  i2c_write(LDC1614_ADDRESS);
//  552   
//  553   LDC_SEND(CONFIG,0x2601);
        MOVW     R1,#+9729
        MOVS     R0,#+26
        BL       LDC_SEND
//  554   
//  555 //  //Transmit array start address
//  556 //  p_i2c_transmitData = (uint8_t *)LDC1614_MUX_CONFIG_FRAME;
//  557 //  //Load transmit byte counter
//  558 //  i2c_transmitCounter = sizeof LDC1614_MUX_CONFIG_FRAME;
//  559 //  //Perform I2C write
//  560 //  i2c_write(LDC1614_ADDRESS);
//  561   
//  562   LDC_SEND(MUX_CONFIG,0xC207);
        MOVW     R1,#+49671
        MOVS     R0,#+27
        BL       LDC_SEND
//  563   
//  564 //  //Transmit array start address
//  565 //  p_i2c_transmitData = (uint8_t *)LDC1614_DRIVE_CURRENT_CH0_FRAME;
//  566 //  //Load transmit byte counter
//  567 //  i2c_transmitCounter = sizeof LDC1614_DRIVE_CURRENT_CH0_FRAME;
//  568 //  //Perform I2C write
//  569 //  i2c_write(LDC1614_ADDRESS);
//  570   
//  571   LDC_SEND(DRIVE_CURRENT_CH0,0x0000);
        MOVS     R1,#+0
        MOVS     R0,#+30
        BL       LDC_SEND
//  572   
//  573 //  //Transmit array start address
//  574 //  p_i2c_transmitData = (uint8_t *)LDC1614_DRIVE_CURRENT_CH1_FRAME;
//  575 //  //Load transmit byte counter
//  576 //  i2c_transmitCounter = sizeof LDC1614_DRIVE_CURRENT_CH1_FRAME;
//  577 //  //Perform I2C write
//  578 //  i2c_write(LDC1614_ADDRESS);
//  579   
//  580   LDC_SEND(DRIVE_CURRENT_CH1,0x0000);
        MOVS     R1,#+0
        MOVS     R0,#+31
        BL       LDC_SEND
//  581   
//  582 //  //Transmit array start address
//  583 //  p_i2c_transmitData = (uint8_t *)LDC1614_DRIVE_CURRENT_CH2_FRAME;
//  584 //  //Load transmit byte counter
//  585 //  i2c_transmitCounter = sizeof LDC1614_DRIVE_CURRENT_CH2_FRAME;
//  586 //  //Perform I2C write
//  587 //  i2c_write(LDC1614_ADDRESS);
//  588   
//  589   LDC_SEND(DRIVE_CURRENT_CH2,0x0000);
        MOVS     R1,#+0
        MOVS     R0,#+32
        BL       LDC_SEND
//  590   
//  591 //  //Transmit array start address
//  592 //  p_i2c_transmitData = (uint8_t *)LDC1614_DRIVE_CURRENT_CH3_FRAME;
//  593 //  //Load transmit byte counter
//  594 //  i2c_transmitCounter = sizeof LDC1614_DRIVE_CURRENT_CH3_FRAME;
//  595 //  //Perform I2C write
//  596 //  i2c_write(LDC1614_ADDRESS);
//  597   
//  598   LDC_SEND(DRIVE_CURRENT_CH3,0x0000);
        MOVS     R1,#+0
        MOVS     R0,#+33
        BL       LDC_SEND
//  599   
//  600 }
        POP      {R0,PC}          ;; return
//  601 

        SECTION `.text`:CODE:NOROOT(1)
        THUMB
//  602 void LDC1614_reset(void)
//  603 {
LDC1614_reset:
        PUSH     {R7,LR}
//  604   
//  605 //  static const uint8_t LDC1614_RESET_DEV_FRAME[3] =
//  606 //  {
//  607 //    RESET_DEV,	//RESET_DEV register address
//  608 //    0x80,		//MSB of RESET_DEV (reset device)
//  609 //    0x00		//LSB of RESET_DEV
//  610 //  };
//  611   
//  612 //  //Transmit array start address
//  613 //  p_i2c_transmitData = (uint8_t *)LDC1614_RESET_DEV_FRAME;
//  614 //  //Load transmit byte counter
//  615 //  i2c_transmitCounter = sizeof LDC1614_RESET_DEV_FRAME;
//  616 //  //Perform I2C write
//  617 //  i2c_write(LDC1614_ADDRESS);
//  618   LDC_SEND(RESET_DEV,0x8000);
        MOV      R1,#+32768
        MOVS     R0,#+28
        BL       LDC_SEND
//  619 }
        POP      {R0,PC}          ;; return
//  620 

        SECTION `.text`:CODE:NOROOT(1)
        THUMB
//  621 void LDC1614_start_meas(void)
//  622 {
LDC1614_start_meas:
        PUSH     {R7,LR}
//  623   
//  624   //Set LDC_INTB as input pin
//  625 //  GPIO_setAsInputPinWithPullUpResistor(
//  626 //                                       LDC_INTB_PORT,
//  627 //                                       LDC_INTB
//  628 //                                         );
//  629   
//  630   //Enable interrupt on LDC_INTB pin
//  631 //  GPIO_enableInterrupt(
//  632 //                       LDC_INTB_PORT,
//  633 //                       LDC_INTB
//  634 //                         );
//  635   
//  636   //Set LDC_INTB interrupt to be high to low transition
//  637 //  GPIO_interruptEdgeSelect(
//  638 //                           LDC_INTB_PORT,
//  639 //                           LDC_INTB,
//  640 //                           GPIO_HIGH_TO_LOW_TRANSITION
//  641 //                             );
//  642   
//  643   //Clear LDC_INTB interrupt
//  644 //  GPIO_clearInterruptFlag(
//  645 //                          LDC_INTB_PORT,
//  646 //                          LDC_INTB
//  647 //                            );
//  648   
//  649 //  static const uint8_t LDC1614_CONFIG_FRAME[3] =
//  650 //  {
//  651 //    CONFIG,	//CONFIG register address
//  652 //    0x06,	//MSB of CONFIG (exit sleep mode, begin conversions)
//  653 //    0x01	//LSB of CONFIG
//  654 //  };
//  655   
//  656 //  //Transmit array start address
//  657 //  p_i2c_transmitData = (uint8_t *)LDC1614_CONFIG_FRAME;
//  658 //  //Load transmit byte counter
//  659 //  i2c_transmitCounter = sizeof LDC1614_CONFIG_FRAME;
//  660 //  //Perform I2C write
//  661 //  i2c_write(LDC1614_ADDRESS);
//  662   LDC_SEND(CONFIG,0x0601);
        MOVW     R1,#+1537
        MOVS     R0,#+26
        BL       LDC_SEND
//  663 }
        POP      {R0,PC}          ;; return
//  664 
//  665 
//  666 

        SECTION `.text`:CODE:NOROOT(1)
        THUMB
//  667 void LDC1614_read_meas(void)
//  668 {
LDC1614_read_meas:
        PUSH     {R4,LR}
//  669   uint16 temp = 0;
        MOVS     R4,#+0
//  670 //  static const uint8_t LDC1614_DATA_MSB_CH0_FRAME[1] =
//  671 //  {
//  672 //    DATA_MSB_CH0,	//DATA_MSB_CH0 register address
//  673 //  };
//  674 //  
//  675 //  static const uint8_t LDC1614_DATA_LSB_CH0_FRAME[1] =
//  676 //  {
//  677 //    DATA_LSB_CH0,	//DATA_LSB_CH0 register address
//  678 //  };
//  679 //  
//  680 //  static const uint8_t LDC1614_DATA_MSB_CH1_FRAME[1] =
//  681 //  {
//  682 //    DATA_MSB_CH1,	//DATA_MSB_CH1 register address
//  683 //  };
//  684 //  
//  685 //  static const uint8_t LDC1614_DATA_LSB_CH1_FRAME[1] =
//  686 //  {
//  687 //    DATA_LSB_CH1,	//DATA_LSB_CH1 register address
//  688 //  };
//  689 //  
//  690 //  static const uint8_t LDC1614_DATA_MSB_CH2_FRAME[1] =
//  691 //  {
//  692 //    DATA_MSB_CH2,	//DATA_MSB_CH2 register address
//  693 //  };
//  694 //  
//  695 //  static const uint8_t LDC1614_DATA_LSB_CH2_FRAME[1] =
//  696 //  {
//  697 //    DATA_LSB_CH2,	//DATA_LSB_CH2 register address
//  698 //  };
//  699 //  
//  700 //  static const uint8_t LDC1614_DATA_MSB_CH3_FRAME[1] =
//  701 //  {
//  702 //    DATA_MSB_CH3,	//DATA_MSB_CH3 register address
//  703 //  };
//  704 //  
//  705 //  static const uint8_t LDC1614_DATA_LSB_CH3_FRAME[1] =
//  706 //  {
//  707 //    DATA_LSB_CH3,	//DATA_LSB_CH3 register address
//  708 //  };
//  709   
//  710 //  //Transmit array start address
//  711 //  p_i2c_transmitData = (uint8_t *)LDC1614_DATA_MSB_CH0_FRAME;
//  712 //  //Load transmit byte counter
//  713 //  i2c_transmitCounter = sizeof LDC1614_DATA_MSB_CH0_FRAME;
//  714 //  //Perform I2C write
//  715 //  i2c_write(LDC1614_ADDRESS);
//  716 //  
//  717 //  //Receive array start address
//  718 //  p_i2c_receivedData = (uint8_t *)LDC_CH0_MSB_BUF;
//  719 //  //Read CH0 MSB data from LDC1614
//  720 //  i2c_read_byte(LDC1614_ADDRESS, sizeof LDC_CH0_MSB_BUF);
//  721   
//  722   temp = LDC_READ(DATA_MSB_CH0);
        MOVS     R0,#+0
        BL       LDC_READ
        MOVS     R4,R0
//  723   LDC_data[0] = ( (0x0FFF & temp) << 16 );
        UXTH     R4,R4            ;; ZeroExt  R4,R4,#+16,#+16
        LSLS     R0,R4,#+20       ;; ZeroExtS R0,R4,#+20,#+20
        LSRS     R0,R0,#+20
        LSLS     R0,R0,#+16
        LDR.W    R1,??DataTable3
        STR      R0,[R1, #+0]
//  724   LDC_flag[0] = ( 0xF000 & temp ) >> 8;
        UXTH     R4,R4            ;; ZeroExt  R4,R4,#+16,#+16
        ASRS     R0,R4,#+8
        ANDS     R0,R0,#0xF0
        LDR.W    R1,??DataTable3_1
        STRB     R0,[R1, #+0]
//  725   
//  726 //  //Transmit array start address
//  727 //  p_i2c_transmitData = (uint8_t *)LDC1614_DATA_LSB_CH0_FRAME;
//  728 //  //Load transmit byte counter
//  729 //  i2c_transmitCounter = sizeof LDC1614_DATA_LSB_CH0_FRAME;
//  730 //  //Perform I2C write
//  731 //  i2c_write(LDC1614_ADDRESS);
//  732 //  
//  733 //  //Receive array start address
//  734 //  p_i2c_receivedData = (uint8_t *)LDC_CH0_LSB_BUF;
//  735 //  //Read CH0 LSB data from LDC1614
//  736 //  i2c_read_byte(LDC1614_ADDRESS, sizeof LDC_CH0_LSB_BUF);
//  737   
//  738   LDC_data[0] |= LDC_READ(DATA_LSB_CH0) ;
        MOVS     R0,#+1
        BL       LDC_READ
        LDR.W    R1,??DataTable3
        LDR      R1,[R1, #+0]
        UXTH     R0,R0            ;; ZeroExt  R0,R0,#+16,#+16
        ORRS     R0,R0,R1
        LDR.W    R1,??DataTable3
        STR      R0,[R1, #+0]
//  739   
//  740 //  //Transmit array start address
//  741 //  p_i2c_transmitData = (uint8_t *)LDC1614_DATA_MSB_CH1_FRAME;
//  742 //  //Load transmit byte counter
//  743 //  i2c_transmitCounter = sizeof LDC1614_DATA_MSB_CH1_FRAME;
//  744 //  //Perform I2C write
//  745 //  i2c_write(LDC1614_ADDRESS);
//  746 //  
//  747 //  //Receive array start address
//  748 //  p_i2c_receivedData = (uint8_t *)LDC_CH1_MSB_BUF;
//  749 //  //Read CH1 MSB data from LDC1614
//  750 //  i2c_read_byte(LDC1614_ADDRESS, sizeof LDC_CH1_MSB_BUF);
//  751   
//  752   temp = LDC_READ(DATA_MSB_CH1);
        MOVS     R0,#+2
        BL       LDC_READ
        MOVS     R4,R0
//  753   LDC_data[1] = ( ( 0x0FFF & temp ) << 16 );
        UXTH     R4,R4            ;; ZeroExt  R4,R4,#+16,#+16
        LSLS     R0,R4,#+20       ;; ZeroExtS R0,R4,#+20,#+20
        LSRS     R0,R0,#+20
        LSLS     R0,R0,#+16
        LDR.W    R1,??DataTable3
        STR      R0,[R1, #+4]
//  754   LDC_flag[1] = ( 0xF000 & temp ) >> 8;
        UXTH     R4,R4            ;; ZeroExt  R4,R4,#+16,#+16
        ASRS     R0,R4,#+8
        ANDS     R0,R0,#0xF0
        LDR.W    R1,??DataTable3_1
        STRB     R0,[R1, #+1]
//  755   
//  756 //  //Transmit array start address
//  757 //  p_i2c_transmitData = (uint8_t *)LDC1614_DATA_LSB_CH1_FRAME;
//  758 //  //Load transmit byte counter
//  759 //  i2c_transmitCounter = sizeof LDC1614_DATA_LSB_CH1_FRAME;
//  760 //  //Perform I2C write
//  761 //  i2c_write(LDC1614_ADDRESS);
//  762 //  
//  763 //  //Receive array start address
//  764 //  p_i2c_receivedData = (uint8_t *)LDC_CH1_LSB_BUF;
//  765 //  //Read CH1 LSB data from LDC1614
//  766 //  i2c_read_byte(LDC1614_ADDRESS, sizeof LDC_CH1_LSB_BUF);
//  767   
//  768   LDC_data[1] |= LDC_READ(DATA_LSB_CH1) ;
        MOVS     R0,#+3
        BL       LDC_READ
        LDR.W    R1,??DataTable3
        LDR      R1,[R1, #+4]
        UXTH     R0,R0            ;; ZeroExt  R0,R0,#+16,#+16
        ORRS     R0,R0,R1
        LDR.W    R1,??DataTable3
        STR      R0,[R1, #+4]
//  769   
//  770 //  //Transmit array start address
//  771 //  p_i2c_transmitData = (uint8_t *)LDC1614_DATA_MSB_CH2_FRAME;
//  772 //  //Load transmit byte counter
//  773 //  i2c_transmitCounter = sizeof LDC1614_DATA_MSB_CH2_FRAME;
//  774 //  //Perform I2C write
//  775 //  i2c_write(LDC1614_ADDRESS);
//  776 //  
//  777 //  //Receive array start address
//  778 //  p_i2c_receivedData = (uint8_t *)LDC_CH2_MSB_BUF;
//  779 //  //Read CH2 MSB data from LDC1614
//  780 //  i2c_read_byte(LDC1614_ADDRESS, sizeof LDC_CH2_MSB_BUF);
//  781   
//  782   temp = LDC_READ(DATA_MSB_CH2);
        MOVS     R0,#+4
        BL       LDC_READ
        MOVS     R4,R0
//  783   LDC_data[2] = ( 0x0FFF & temp ) << 16 ;
        UXTH     R4,R4            ;; ZeroExt  R4,R4,#+16,#+16
        LSLS     R0,R4,#+20       ;; ZeroExtS R0,R4,#+20,#+20
        LSRS     R0,R0,#+20
        LSLS     R0,R0,#+16
        LDR.W    R1,??DataTable3
        STR      R0,[R1, #+8]
//  784   LDC_flag[2] = ( 0xF000 & temp ) >> 8;
        UXTH     R4,R4            ;; ZeroExt  R4,R4,#+16,#+16
        ASRS     R0,R4,#+8
        ANDS     R0,R0,#0xF0
        LDR.W    R1,??DataTable3_1
        STRB     R0,[R1, #+2]
//  785 //  //Transmit array start address
//  786 //  p_i2c_transmitData = (uint8_t *)LDC1614_DATA_LSB_CH2_FRAME;
//  787 //  //Load transmit byte counter
//  788 //  i2c_transmitCounter = sizeof LDC1614_DATA_LSB_CH2_FRAME;
//  789 //  //Perform I2C write
//  790 //  i2c_write(LDC1614_ADDRESS);
//  791 //  
//  792 //  //Receive array start address
//  793 //  p_i2c_receivedData = (uint8_t *)LDC_CH2_LSB_BUF;
//  794 //  //Read CH2 LSB data from LDC1614
//  795 //  i2c_read_byte(LDC1614_ADDRESS, sizeof LDC_CH2_LSB_BUF);
//  796   
//  797   LDC_data[2] |= LDC_READ(DATA_LSB_CH2) ;
        MOVS     R0,#+5
        BL       LDC_READ
        LDR.W    R1,??DataTable3
        LDR      R1,[R1, #+8]
        UXTH     R0,R0            ;; ZeroExt  R0,R0,#+16,#+16
        ORRS     R0,R0,R1
        LDR.W    R1,??DataTable3
        STR      R0,[R1, #+8]
//  798   push(0,(LDC_data[2]>>5) &0x7fff );
        LDR.W    R0,??DataTable3
        LDR      R0,[R0, #+8]
        LSRS     R0,R0,#+5
        LSLS     R1,R0,#+17       ;; ZeroExtS R1,R0,#+17,#+17
        LSRS     R1,R1,#+17
        MOVS     R0,#+0
        BL       `push`
//  799 //  //Transmit array start address
//  800 //  p_i2c_transmitData = (uint8_t *)LDC1614_DATA_MSB_CH3_FRAME;
//  801 //  //Load transmit byte counter
//  802 //  i2c_transmitCounter = sizeof LDC1614_DATA_MSB_CH3_FRAME;
//  803 //  //Perform I2C write
//  804 //  i2c_write(LDC1614_ADDRESS);
//  805 //  
//  806 //  //Receive array start address
//  807 //  p_i2c_receivedData = (uint8_t *)LDC_CH3_MSB_BUF;
//  808 //  //Read CH3 MSB data from LDC1614
//  809 //  i2c_read_byte(LDC1614_ADDRESS, sizeof LDC_CH3_MSB_BUF);
//  810   
//  811   temp = LDC_READ(DATA_MSB_CH3);
        MOVS     R0,#+6
        BL       LDC_READ
        MOVS     R4,R0
//  812   LDC_data[3] = ( 0x0FFF & temp ) << 16 ;
        UXTH     R4,R4            ;; ZeroExt  R4,R4,#+16,#+16
        LSLS     R0,R4,#+20       ;; ZeroExtS R0,R4,#+20,#+20
        LSRS     R0,R0,#+20
        LSLS     R0,R0,#+16
        LDR.W    R1,??DataTable3
        STR      R0,[R1, #+12]
//  813   LDC_flag[3] = ( 0xF000 & temp ) >> 8 ;
        UXTH     R4,R4            ;; ZeroExt  R4,R4,#+16,#+16
        ASRS     R0,R4,#+8
        ANDS     R0,R0,#0xF0
        LDR.W    R1,??DataTable3_1
        STRB     R0,[R1, #+3]
//  814   
//  815 //  //Transmit array start address
//  816 //  p_i2c_transmitData = (uint8_t *)LDC1614_DATA_LSB_CH3_FRAME;
//  817 //  //Load transmit byte counter
//  818 //  i2c_transmitCounter = sizeof LDC1614_DATA_LSB_CH3_FRAME;
//  819 //  //Perform I2C write
//  820 //  i2c_write(LDC1614_ADDRESS);
//  821 //  
//  822 //  //Receive array start address
//  823 //  p_i2c_receivedData = (uint8_t *)LDC_CH3_LSB_BUF;
//  824 //  //Read CH3 LSB data from LDC1614
//  825 //  i2c_read_byte(LDC1614_ADDRESS, sizeof LDC_CH3_LSB_BUF);
//  826   
//  827   LDC_data[3] |= LDC_READ(DATA_LSB_CH3) ;
        MOVS     R0,#+7
        BL       LDC_READ
        LDR.W    R1,??DataTable3
        LDR      R1,[R1, #+12]
        UXTH     R0,R0            ;; ZeroExt  R0,R0,#+16,#+16
        ORRS     R0,R0,R1
        LDR.W    R1,??DataTable3
        STR      R0,[R1, #+12]
//  828   
//  829 //  //Separate LDC1614 CH0 Data and Error Flags
//  830 //  LDC_CH0_DATA = (
//  831 //                  (0x0FFFFFFF) & 	//Mask error flags
//  832 //                    (((uint32_t)LDC_CH0_MSB_BUF[0] << 24) |
//  833 //                     ((uint32_t)LDC_CH0_MSB_BUF[1] << 16) |
//  834 //                       ((uint32_t)LDC_CH0_LSB_BUF[0] << 8) |
//  835 //                         ((uint32_t)LDC_CH0_LSB_BUF[1] << 0))
//  836 //                      );
//  837   
//  838    /*flag of each chn*/
//  839 //  //mask upper 4 bits of data, keep error flags
//  840 //  LDC_CH0_ERRORS = (0xF0 & LDC_CH0_MSB_BUF[0]);
//  841   
//  842 //  //Separate LDC1614 CH1 Data and Error Flags
//  843 //  LDC_CH1_DATA = (
//  844 //                  (0x0FFFFFFF) & 	//Mask error flags
//  845 //                    (((uint32_t)LDC_CH1_MSB_BUF[0] << 24) |
//  846 //                     ((uint32_t)LDC_CH1_MSB_BUF[1] << 16) |
//  847 //                       ((uint32_t)LDC_CH1_LSB_BUF[0] << 8) |
//  848 //                         ((uint32_t)LDC_CH1_LSB_BUF[1] << 0))
//  849 //                      );
//  850  
//  851 //  //mask upper 4 bits of data, keep error flags
//  852 //  LDC_CH1_ERRORS = (0xF0 & LDC_CH1_MSB_BUF[0]);
//  853   
//  854 //  //Separate LDC1614 CH2 Data and Error Flags
//  855 //  LDC_CH2_DATA = (
//  856 //                  (0x0FFFFFFF) & 	//Mask error flags
//  857 //                    (((uint32_t)LDC_CH2_MSB_BUF[0] << 24) |
//  858 //                     ((uint32_t)LDC_CH2_MSB_BUF[1] << 16) |
//  859 //                       ((uint32_t)LDC_CH2_LSB_BUF[0] << 8) |
//  860 //                         ((uint32_t)LDC_CH2_LSB_BUF[1] << 0))
//  861 //                      );
//  862   
//  863   
//  864 //  //mask upper 4 bits of data, keep error flags
//  865 //  LDC_CH2_ERRORS = (0xF0 & LDC_CH2_MSB_BUF[0]);
//  866   
//  867 //  //Separate LDC1614 CH3 Data and Error Flags
//  868 //  LDC_CH3_DATA = (
//  869 //                  (0x0FFFFFFF) & 	//Mask error flags
//  870 //                    (((uint32_t)LDC_CH3_MSB_BUF[0] << 24) |
//  871 //                     ((uint32_t)LDC_CH3_MSB_BUF[1] << 16) |
//  872 //                       ((uint32_t)LDC_CH3_LSB_BUF[0] << 8) |
//  873 //                         ((uint32_t)LDC_CH3_LSB_BUF[1] << 0))
//  874 //                      );
//  875   
//  876   
//  877 //  //mask upper 4 bits of data, keep error flags
//  878 //  LDC_CH3_ERRORS = (0xF0 & LDC_CH3_MSB_BUF[0]);
//  879   
//  880 //  //Run Button Press Algorithm
//  881 //  LDC1614_button_press_IIR_algorithm();
//  882   
//  883   //Check STATUS register, clears INTB
//  884   LDC1614_status();
        BL       LDC1614_status
//  885   
//  886 }
        POP      {R4,PC}          ;; return
//  887 

        SECTION `.text`:CODE:NOROOT(1)
        THUMB
//  888 void LDC1614_status(void)
//  889 {
LDC1614_status:
        PUSH     {R7,LR}
//  890   
//  891 //  static const uint8_t LDC1614_STATUS_FRAME[1] =
//  892 //  {
//  893 //    0x18,	//STATUS register address
//  894 //  };
//  895   
//  896 //  //Transmit array start address
//  897 //  p_i2c_transmitData = (uint8_t *)LDC1614_STATUS_FRAME;
//  898 //  //Load transmit byte counter
//  899 //  i2c_transmitCounter = sizeof LDC1614_STATUS_FRAME;
//  900 //  //Perform I2C write
//  901 //  i2c_write(LDC1614_ADDRESS);
//  902 //  
//  903 //  //Receive array start address
//  904 //  p_i2c_receivedData = (uint8_t *)LDC_STATUS_BUF;
//  905 //  //Read STATUS register from LDC1614
//  906 //  i2c_read_byte(LDC1614_ADDRESS, sizeof LDC_STATUS_BUF);
//  907   LDC_STATUS = LDC_READ(0x18);
        MOVS     R0,#+24
        BL       LDC_READ
        LDR.W    R1,??DataTable3_2
        STRH     R0,[R1, #+0]
//  908 }
        POP      {R0,PC}          ;; return
//  909 

        SECTION `.text`:CODE:NOROOT(1)
        THUMB
//  910 void LDC1614_button_press_running_average_algorithm(void)
//  911 {
//  912   
//  913   //Add current LDC data to instantaneous average value
//  914   LDC_CH0_SUM_1 += LDC_CH0_DATA;
LDC1614_button_press_running_average_algorithm:
        LDR.W    R0,??DataTable3_3
        LDR      R0,[R0, #+0]
        LDR.W    R1,??DataTable3_4
        LDR      R1,[R1, #+0]
        ADDS     R0,R1,R0
        LDR.W    R1,??DataTable3_3
        STR      R0,[R1, #+0]
//  915   LDC_CH1_SUM_1 += LDC_CH1_DATA;
        LDR.W    R0,??DataTable3_5
        LDR      R0,[R0, #+0]
        LDR.W    R1,??DataTable3_6
        LDR      R1,[R1, #+0]
        ADDS     R0,R1,R0
        LDR.W    R1,??DataTable3_5
        STR      R0,[R1, #+0]
//  916   LDC_CH2_SUM_1 += LDC_CH2_DATA;
        LDR.W    R0,??DataTable3_7
        LDR      R0,[R0, #+0]
        LDR.W    R1,??DataTable3_8
        LDR      R1,[R1, #+0]
        ADDS     R0,R1,R0
        LDR.W    R1,??DataTable3_7
        STR      R0,[R1, #+0]
//  917   LDC_CH3_SUM_1 += LDC_CH3_DATA;
        LDR.W    R0,??DataTable3_9
        LDR      R0,[R0, #+0]
        LDR.W    R1,??DataTable3_10
        LDR      R1,[R1, #+0]
        ADDS     R0,R1,R0
        LDR.W    R1,??DataTable3_9
        STR      R0,[R1, #+0]
//  918   
//  919   //Increment running avg counter
//  920   RUNNING_AVG_INDEX1++;
        LDR.W    R0,??DataTable3_11
        LDRB     R0,[R0, #+0]
        ADDS     R0,R0,#+1
        LDR.W    R1,??DataTable3_11
        STRB     R0,[R1, #+0]
//  921   
//  922   //Update intantaneous average every 16 samples
//  923   if(RUNNING_AVG_INDEX1 >= 16)
        LDR.W    R0,??DataTable3_11
        LDRB     R0,[R0, #+0]
        CMP      R0,#+16
        BLT.W    ??LDC1614_button_press_running_average_algorith_0
//  924   {
//  925     //Reset running avg counter
//  926     RUNNING_AVG_INDEX1 = 0;
        MOVS     R0,#+0
        LDR.W    R1,??DataTable3_11
        STRB     R0,[R1, #+0]
//  927     
//  928     //Set instantaneous average to 16 LDC samples
//  929     LDC_CH0_INST_AVG = (LDC_CH0_SUM_1 >> 4);
        LDR.W    R0,??DataTable3_3
        LDR      R0,[R0, #+0]
        LSRS     R0,R0,#+4
        LDR.W    R1,??DataTable3_12
        STR      R0,[R1, #+0]
//  930     LDC_CH1_INST_AVG = (LDC_CH1_SUM_1 >> 4);
        LDR.W    R0,??DataTable3_5
        LDR      R0,[R0, #+0]
        LSRS     R0,R0,#+4
        LDR.W    R1,??DataTable3_13
        STR      R0,[R1, #+0]
//  931     LDC_CH2_INST_AVG = (LDC_CH2_SUM_1 >> 4);
        LDR.W    R0,??DataTable3_7
        LDR      R0,[R0, #+0]
        LSRS     R0,R0,#+4
        LDR.W    R1,??DataTable3_14
        STR      R0,[R1, #+0]
//  932     LDC_CH3_INST_AVG = (LDC_CH3_SUM_1 >> 4);
        LDR.W    R0,??DataTable3_9
        LDR      R0,[R0, #+0]
        LSRS     R0,R0,#+4
        LDR.W    R1,??DataTable3_15
        STR      R0,[R1, #+0]
//  933     
//  934     //Reset running avg sum variable
//  935     LDC_CH0_SUM_1 = 0;
        MOVS     R0,#+0
        LDR.W    R1,??DataTable3_3
        STR      R0,[R1, #+0]
//  936     LDC_CH1_SUM_1 = 0;
        MOVS     R0,#+0
        LDR.W    R1,??DataTable3_5
        STR      R0,[R1, #+0]
//  937     LDC_CH2_SUM_1 = 0;
        MOVS     R0,#+0
        LDR.W    R1,??DataTable3_7
        STR      R0,[R1, #+0]
//  938     LDC_CH3_SUM_1 = 0;
        MOVS     R0,#+0
        LDR.W    R1,??DataTable3_9
        STR      R0,[R1, #+0]
//  939     
//  940     //Add instantaneous average to LDC slow average
//  941     LDC_CH0_SUM_2 += LDC_CH0_INST_AVG;
        LDR.W    R0,??DataTable3_16
        LDR      R0,[R0, #+0]
        LDR.W    R1,??DataTable3_12
        LDR      R1,[R1, #+0]
        ADDS     R0,R1,R0
        LDR.W    R1,??DataTable3_16
        STR      R0,[R1, #+0]
//  942     LDC_CH1_SUM_2 += LDC_CH1_INST_AVG;
        LDR.W    R0,??DataTable3_17
        LDR      R0,[R0, #+0]
        LDR.W    R1,??DataTable3_13
        LDR      R1,[R1, #+0]
        ADDS     R0,R1,R0
        LDR.W    R1,??DataTable3_17
        STR      R0,[R1, #+0]
//  943     LDC_CH2_SUM_2 += LDC_CH2_INST_AVG;
        LDR.W    R0,??DataTable3_18
        LDR      R0,[R0, #+0]
        LDR.W    R1,??DataTable3_14
        LDR      R1,[R1, #+0]
        ADDS     R0,R1,R0
        LDR.W    R1,??DataTable3_18
        STR      R0,[R1, #+0]
//  944     LDC_CH3_SUM_2 += LDC_CH3_INST_AVG;
        LDR.W    R0,??DataTable3_19
        LDR      R0,[R0, #+0]
        LDR.W    R1,??DataTable3_15
        LDR      R1,[R1, #+0]
        ADDS     R0,R1,R0
        LDR.W    R1,??DataTable3_19
        STR      R0,[R1, #+0]
//  945     
//  946     //Increment slow average counter
//  947     RUNNING_AVG_INDEX2++;
        LDR.W    R0,??DataTable3_20
        LDRB     R0,[R0, #+0]
        ADDS     R0,R0,#+1
        LDR.W    R1,??DataTable3_20
        STRB     R0,[R1, #+0]
//  948     
//  949     //Update slow average every 16 * 128 = 2048 samples
//  950     if(RUNNING_AVG_INDEX2 >= 128)
        LDR.W    R0,??DataTable3_20
        LDRB     R0,[R0, #+0]
        CMP      R0,#+128
        BLT.W    ??LDC1614_button_press_running_average_algorith_1
//  951     {
//  952       //Reset running avg counter
//  953       RUNNING_AVG_INDEX2 = 0;
        MOVS     R0,#+0
        LDR.W    R1,??DataTable3_20
        STRB     R0,[R1, #+0]
//  954       
//  955       //Set slow average to 128 samples of inst. avg
//  956       LDC_CH0_SLOW_AVG = (LDC_CH0_SUM_2 >> 7);
        LDR.W    R0,??DataTable3_16
        LDR      R0,[R0, #+0]
        LSRS     R0,R0,#+7
        LDR.W    R1,??DataTable3_21
        STR      R0,[R1, #+0]
//  957       LDC_CH1_SLOW_AVG = (LDC_CH1_SUM_2 >> 7);
        LDR.W    R0,??DataTable3_17
        LDR      R0,[R0, #+0]
        LSRS     R0,R0,#+7
        LDR.W    R1,??DataTable3_22
        STR      R0,[R1, #+0]
//  958       LDC_CH2_SLOW_AVG = (LDC_CH2_SUM_2 >> 7);
        LDR.W    R0,??DataTable3_18
        LDR      R0,[R0, #+0]
        LSRS     R0,R0,#+7
        LDR.W    R1,??DataTable3_23
        STR      R0,[R1, #+0]
//  959       LDC_CH3_SLOW_AVG = (LDC_CH3_SUM_2 >> 7);
        LDR.W    R0,??DataTable3_19
        LDR      R0,[R0, #+0]
        LSRS     R0,R0,#+7
        LDR.W    R1,??DataTable3_24
        STR      R0,[R1, #+0]
//  960       
//  961       //Add pre-set threshold value to slow avg
//  962       LDC_CH0_THRESHOLD_1 = LDC_CH0_SLOW_AVG + LDC_CH0_THR_1;
        LDR.W    R0,??DataTable3_21
        LDR      R0,[R0, #+0]
        LDR.W    R1,??DataTable3_25
        LDR      R1,[R1, #+0]
        ADDS     R0,R1,R0
        LDR.W    R1,??DataTable3_26
        STR      R0,[R1, #+0]
//  963       LDC_CH1_THRESHOLD_1 = LDC_CH1_SLOW_AVG + LDC_CH1_THR_1;
        LDR.W    R0,??DataTable3_22
        LDR      R0,[R0, #+0]
        LDR.W    R1,??DataTable3_27
        LDR      R1,[R1, #+0]
        ADDS     R0,R1,R0
        LDR.W    R1,??DataTable3_28
        STR      R0,[R1, #+0]
//  964       LDC_CH2_THRESHOLD_1 = LDC_CH2_SLOW_AVG + LDC_CH2_THR_1;
        LDR.W    R0,??DataTable3_23
        LDR      R0,[R0, #+0]
        LDR.W    R1,??DataTable3_29
        LDR      R1,[R1, #+0]
        ADDS     R0,R1,R0
        LDR.W    R1,??DataTable3_30
        STR      R0,[R1, #+0]
//  965       LDC_CH3_THRESHOLD_1 = LDC_CH3_SLOW_AVG + LDC_CH3_THR_1;
        LDR.W    R0,??DataTable3_24
        LDR      R0,[R0, #+0]
        LDR.W    R1,??DataTable3_31
        LDR      R1,[R1, #+0]
        ADDS     R0,R1,R0
        LDR.W    R1,??DataTable3_32
        STR      R0,[R1, #+0]
//  966       
//  967       //Add pre-set threshold value to slow avg
//  968       LDC_CH0_THRESHOLD_2 = LDC_CH0_SLOW_AVG + LDC_CH0_THR_2;
        LDR.W    R0,??DataTable3_21
        LDR      R0,[R0, #+0]
        LDR.W    R1,??DataTable3_33
        LDR      R1,[R1, #+0]
        ADDS     R0,R1,R0
        LDR.W    R1,??DataTable3_34
        STR      R0,[R1, #+0]
//  969       LDC_CH1_THRESHOLD_2 = LDC_CH1_SLOW_AVG + LDC_CH1_THR_2;
        LDR.W    R0,??DataTable3_22
        LDR      R0,[R0, #+0]
        LDR.W    R1,??DataTable3_35
        LDR      R1,[R1, #+0]
        ADDS     R0,R1,R0
        LDR.W    R1,??DataTable3_36
        STR      R0,[R1, #+0]
//  970       LDC_CH2_THRESHOLD_2 = LDC_CH2_SLOW_AVG + LDC_CH2_THR_2;
        LDR.W    R0,??DataTable3_23
        LDR      R0,[R0, #+0]
        LDR.W    R1,??DataTable3_37
        LDR      R1,[R1, #+0]
        ADDS     R0,R1,R0
        LDR.W    R1,??DataTable3_38
        STR      R0,[R1, #+0]
//  971       LDC_CH3_THRESHOLD_2 = LDC_CH3_SLOW_AVG + LDC_CH3_THR_2;
        LDR.W    R0,??DataTable3_24
        LDR      R0,[R0, #+0]
        LDR.W    R1,??DataTable3_39
        LDR      R1,[R1, #+0]
        ADDS     R0,R1,R0
        LDR.W    R1,??DataTable3_40
        STR      R0,[R1, #+0]
//  972       
//  973       //Reset running avg sum variable
//  974       LDC_CH0_SUM_2 = 0;
        MOVS     R0,#+0
        LDR.W    R1,??DataTable3_16
        STR      R0,[R1, #+0]
//  975       LDC_CH1_SUM_2 = 0;
        MOVS     R0,#+0
        LDR.W    R1,??DataTable3_17
        STR      R0,[R1, #+0]
//  976       LDC_CH2_SUM_2 = 0;
        MOVS     R0,#+0
        LDR.W    R1,??DataTable3_18
        STR      R0,[R1, #+0]
//  977       LDC_CH3_SUM_2 = 0;
        MOVS     R0,#+0
        LDR.W    R1,??DataTable3_19
        STR      R0,[R1, #+0]
//  978     }
//  979     
//  980     if(LDC_CH0_INST_AVG >= LDC_CH0_THRESHOLD_2)
??LDC1614_button_press_running_average_algorith_1:
        LDR.W    R0,??DataTable3_12
        LDR      R0,[R0, #+0]
        LDR.W    R1,??DataTable3_34
        LDR      R1,[R1, #+0]
        CMP      R0,R1
        BCC.N    ??LDC1614_button_press_running_average_algorith_2
//  981     {
//  982       //Set button push flag
//  983       LDC_CH0_PUSH = 2;
        MOVS     R0,#+2
        LDR.W    R1,??DataTable3_41
        STRB     R0,[R1, #+0]
        B.N      ??LDC1614_button_press_running_average_algorith_3
//  984     }
//  985     else if(LDC_CH0_INST_AVG >= LDC_CH0_THRESHOLD_1)
??LDC1614_button_press_running_average_algorith_2:
        LDR.W    R0,??DataTable3_12
        LDR      R0,[R0, #+0]
        LDR.W    R1,??DataTable3_26
        LDR      R1,[R1, #+0]
        CMP      R0,R1
        BCC.N    ??LDC1614_button_press_running_average_algorith_4
//  986     {
//  987       LDC_CH0_PUSH = 1;
        MOVS     R0,#+1
        LDR.W    R1,??DataTable3_41
        STRB     R0,[R1, #+0]
        B.N      ??LDC1614_button_press_running_average_algorith_3
//  988     }
//  989     else
//  990     {
//  991       //Clear button push flag
//  992       LDC_CH0_PUSH = 0;
??LDC1614_button_press_running_average_algorith_4:
        MOVS     R0,#+0
        LDR.W    R1,??DataTable3_41
        STRB     R0,[R1, #+0]
//  993     }
//  994     
//  995     if(LDC_CH1_INST_AVG >= LDC_CH1_THRESHOLD_2)
??LDC1614_button_press_running_average_algorith_3:
        LDR.W    R0,??DataTable3_13
        LDR      R0,[R0, #+0]
        LDR.W    R1,??DataTable3_36
        LDR      R1,[R1, #+0]
        CMP      R0,R1
        BCC.N    ??LDC1614_button_press_running_average_algorith_5
//  996     {
//  997       //Set button push flag
//  998       LDC_CH1_PUSH = 2;
        MOVS     R0,#+2
        LDR.W    R1,??DataTable3_42
        STRB     R0,[R1, #+0]
        B.N      ??LDC1614_button_press_running_average_algorith_6
//  999     }
// 1000     else if(LDC_CH1_INST_AVG >= LDC_CH1_THRESHOLD_1)
??LDC1614_button_press_running_average_algorith_5:
        LDR.W    R0,??DataTable3_13
        LDR      R0,[R0, #+0]
        LDR.W    R1,??DataTable3_28
        LDR      R1,[R1, #+0]
        CMP      R0,R1
        BCC.N    ??LDC1614_button_press_running_average_algorith_7
// 1001     {
// 1002       LDC_CH1_PUSH = 1;
        MOVS     R0,#+1
        LDR.W    R1,??DataTable3_42
        STRB     R0,[R1, #+0]
        B.N      ??LDC1614_button_press_running_average_algorith_6
// 1003     }
// 1004     else
// 1005     {
// 1006       //Clear button push flag
// 1007       LDC_CH1_PUSH = 0;
??LDC1614_button_press_running_average_algorith_7:
        MOVS     R0,#+0
        LDR.W    R1,??DataTable3_42
        STRB     R0,[R1, #+0]
// 1008     }
// 1009     
// 1010     if(LDC_CH2_INST_AVG >= LDC_CH2_THRESHOLD_2)
??LDC1614_button_press_running_average_algorith_6:
        LDR.W    R0,??DataTable3_14
        LDR      R0,[R0, #+0]
        LDR.W    R1,??DataTable3_38
        LDR      R1,[R1, #+0]
        CMP      R0,R1
        BCC.N    ??LDC1614_button_press_running_average_algorith_8
// 1011     {
// 1012       //Set button push flag
// 1013       LDC_CH2_PUSH = 2;
        MOVS     R0,#+2
        LDR.W    R1,??DataTable3_43
        STRB     R0,[R1, #+0]
        B.N      ??LDC1614_button_press_running_average_algorith_9
// 1014     }
// 1015     else if(LDC_CH2_INST_AVG >= LDC_CH2_THRESHOLD_1)
??LDC1614_button_press_running_average_algorith_8:
        LDR.W    R0,??DataTable3_14
        LDR      R0,[R0, #+0]
        LDR.W    R1,??DataTable3_30
        LDR      R1,[R1, #+0]
        CMP      R0,R1
        BCC.N    ??LDC1614_button_press_running_average_algorith_10
// 1016     {
// 1017       LDC_CH2_PUSH = 1;
        MOVS     R0,#+1
        LDR.W    R1,??DataTable3_43
        STRB     R0,[R1, #+0]
        B.N      ??LDC1614_button_press_running_average_algorith_9
// 1018     }
// 1019     else
// 1020     {
// 1021       //Clear button push flag
// 1022       LDC_CH2_PUSH = 0;
??LDC1614_button_press_running_average_algorith_10:
        MOVS     R0,#+0
        LDR.W    R1,??DataTable3_43
        STRB     R0,[R1, #+0]
// 1023     }
// 1024     
// 1025     if(LDC_CH3_INST_AVG >= LDC_CH3_THRESHOLD_2)
??LDC1614_button_press_running_average_algorith_9:
        LDR.W    R0,??DataTable3_15
        LDR      R0,[R0, #+0]
        LDR.W    R1,??DataTable3_40
        LDR      R1,[R1, #+0]
        CMP      R0,R1
        BCC.N    ??LDC1614_button_press_running_average_algorith_11
// 1026     {
// 1027       //Set button push flag
// 1028       LDC_CH3_PUSH = 2;
        MOVS     R0,#+2
        LDR.W    R1,??DataTable3_44
        STRB     R0,[R1, #+0]
        B.N      ??LDC1614_button_press_running_average_algorith_0
// 1029     }
// 1030     else if(LDC_CH3_INST_AVG >= LDC_CH3_THRESHOLD_1)
??LDC1614_button_press_running_average_algorith_11:
        LDR.W    R0,??DataTable3_15
        LDR      R0,[R0, #+0]
        LDR.W    R1,??DataTable3_32
        LDR      R1,[R1, #+0]
        CMP      R0,R1
        BCC.N    ??LDC1614_button_press_running_average_algorith_12
// 1031     {
// 1032       LDC_CH3_PUSH = 1;
        MOVS     R0,#+1
        LDR.W    R1,??DataTable3_44
        STRB     R0,[R1, #+0]
        B.N      ??LDC1614_button_press_running_average_algorith_0
// 1033     }
// 1034     else
// 1035     {
// 1036       //Clear button push flag
// 1037       LDC_CH3_PUSH = 0;
??LDC1614_button_press_running_average_algorith_12:
        MOVS     R0,#+0
        LDR.W    R1,??DataTable3_44
        STRB     R0,[R1, #+0]
// 1038     }
// 1039   }
// 1040   
// 1041 }
??LDC1614_button_press_running_average_algorith_0:
        BX       LR               ;; return
// 1042 

        SECTION `.text`:CODE:NOROOT(1)
        THUMB
// 1043 void LDC1614_button_press_IIR_algorithm(void)
// 1044 {
// 1045   
// 1046   //Set average values equal to first measurement if first run
// 1047   if(FIRST_RUN)
LDC1614_button_press_IIR_algorithm:
        LDR.W    R0,??DataTable3_45
        LDRB     R0,[R0, #+0]
        CMP      R0,#+0
        BEQ.N    ??LDC1614_button_press_IIR_algorithm_0
// 1048   {
// 1049     LDC_CH0_INST_AVG = LDC_CH0_DATA;
        LDR.N    R0,??DataTable3_4
        LDR      R0,[R0, #+0]
        LDR.N    R1,??DataTable3_12
        STR      R0,[R1, #+0]
// 1050     LDC_CH1_INST_AVG = LDC_CH1_DATA;
        LDR.N    R0,??DataTable3_6
        LDR      R0,[R0, #+0]
        LDR.N    R1,??DataTable3_13
        STR      R0,[R1, #+0]
// 1051     LDC_CH2_INST_AVG = LDC_CH2_DATA;
        LDR.N    R0,??DataTable3_8
        LDR      R0,[R0, #+0]
        LDR.N    R1,??DataTable3_14
        STR      R0,[R1, #+0]
// 1052     LDC_CH3_INST_AVG = LDC_CH3_DATA;
        LDR.N    R0,??DataTable3_10
        LDR      R0,[R0, #+0]
        LDR.N    R1,??DataTable3_15
        STR      R0,[R1, #+0]
// 1053     
// 1054     LDC_CH0_SLOW_AVG = LDC_CH0_DATA;
        LDR.N    R0,??DataTable3_4
        LDR      R0,[R0, #+0]
        LDR.N    R1,??DataTable3_21
        STR      R0,[R1, #+0]
// 1055     LDC_CH1_SLOW_AVG = LDC_CH1_DATA;
        LDR.N    R0,??DataTable3_6
        LDR      R0,[R0, #+0]
        LDR.N    R1,??DataTable3_22
        STR      R0,[R1, #+0]
// 1056     LDC_CH2_SLOW_AVG = LDC_CH2_DATA;
        LDR.N    R0,??DataTable3_8
        LDR      R0,[R0, #+0]
        LDR.N    R1,??DataTable3_23
        STR      R0,[R1, #+0]
// 1057     LDC_CH3_SLOW_AVG = LDC_CH3_DATA;
        LDR.N    R0,??DataTable3_10
        LDR      R0,[R0, #+0]
        LDR.N    R1,??DataTable3_24
        STR      R0,[R1, #+0]
// 1058     
// 1059     FIRST_RUN = 0;
        MOVS     R0,#+0
        LDR.N    R1,??DataTable3_45
        STRB     R0,[R1, #+0]
// 1060   }
// 1061   
// 1062   LDC_CH0_INST_AVG = ( ( (LDC_CH0_INST_AVG << INST_AVG_POWER) - LDC_CH0_INST_AVG + LDC_CH0_DATA ) >> INST_AVG_POWER );
??LDC1614_button_press_IIR_algorithm_0:
        LDR.N    R0,??DataTable3_12
        LDR      R0,[R0, #+0]
        LDR.N    R1,??DataTable3_46
        LDRB     R1,[R1, #+0]
        LSLS     R0,R0,R1
        LDR.N    R1,??DataTable3_12
        LDR      R1,[R1, #+0]
        SUBS     R0,R0,R1
        LDR.N    R1,??DataTable3_4
        LDR      R1,[R1, #+0]
        ADDS     R0,R1,R0
        LDR.N    R1,??DataTable3_46
        LDRB     R1,[R1, #+0]
        LSRS     R0,R0,R1
        LDR.N    R1,??DataTable3_12
        STR      R0,[R1, #+0]
// 1063   LDC_CH1_INST_AVG = ( ( (LDC_CH1_INST_AVG << INST_AVG_POWER) - LDC_CH1_INST_AVG + LDC_CH1_DATA ) >> INST_AVG_POWER );
        LDR.N    R0,??DataTable3_13
        LDR      R0,[R0, #+0]
        LDR.N    R1,??DataTable3_46
        LDRB     R1,[R1, #+0]
        LSLS     R0,R0,R1
        LDR.N    R1,??DataTable3_13
        LDR      R1,[R1, #+0]
        SUBS     R0,R0,R1
        LDR.N    R1,??DataTable3_6
        LDR      R1,[R1, #+0]
        ADDS     R0,R1,R0
        LDR.N    R1,??DataTable3_46
        LDRB     R1,[R1, #+0]
        LSRS     R0,R0,R1
        LDR.N    R1,??DataTable3_13
        STR      R0,[R1, #+0]
// 1064   LDC_CH2_INST_AVG = ( ( (LDC_CH2_INST_AVG << INST_AVG_POWER) - LDC_CH2_INST_AVG + LDC_CH2_DATA ) >> INST_AVG_POWER );
        LDR.N    R0,??DataTable3_14
        LDR      R0,[R0, #+0]
        LDR.N    R1,??DataTable3_46
        LDRB     R1,[R1, #+0]
        LSLS     R0,R0,R1
        LDR.N    R1,??DataTable3_14
        LDR      R1,[R1, #+0]
        SUBS     R0,R0,R1
        LDR.N    R1,??DataTable3_8
        LDR      R1,[R1, #+0]
        ADDS     R0,R1,R0
        LDR.N    R1,??DataTable3_46
        LDRB     R1,[R1, #+0]
        LSRS     R0,R0,R1
        LDR.N    R1,??DataTable3_14
        STR      R0,[R1, #+0]
// 1065   LDC_CH3_INST_AVG = ( ( (LDC_CH3_INST_AVG << INST_AVG_POWER) - LDC_CH3_INST_AVG + LDC_CH3_DATA ) >> INST_AVG_POWER );
        LDR.N    R0,??DataTable3_15
        LDR      R0,[R0, #+0]
        LDR.N    R1,??DataTable3_46
        LDRB     R1,[R1, #+0]
        LSLS     R0,R0,R1
        LDR.N    R1,??DataTable3_15
        LDR      R1,[R1, #+0]
        SUBS     R0,R0,R1
        LDR.N    R1,??DataTable3_10
        LDR      R1,[R1, #+0]
        ADDS     R0,R1,R0
        LDR.N    R1,??DataTable3_46
        LDRB     R1,[R1, #+0]
        LSRS     R0,R0,R1
        LDR.N    R1,??DataTable3_15
        STR      R0,[R1, #+0]
// 1066   
// 1067   LDC_CH0_SLOW_AVG = ( ( (LDC_CH0_SLOW_AVG << SLOW_AVG_POWER) - LDC_CH0_SLOW_AVG + LDC_CH0_INST_AVG ) >> SLOW_AVG_POWER );
        LDR.N    R0,??DataTable3_21
        LDR      R0,[R0, #+0]
        LDR.N    R1,??DataTable3_47
        LDRB     R1,[R1, #+0]
        LSLS     R0,R0,R1
        LDR.N    R1,??DataTable3_21
        LDR      R1,[R1, #+0]
        SUBS     R0,R0,R1
        LDR.N    R1,??DataTable3_12
        LDR      R1,[R1, #+0]
        ADDS     R0,R1,R0
        LDR.N    R1,??DataTable3_47
        LDRB     R1,[R1, #+0]
        LSRS     R0,R0,R1
        LDR.N    R1,??DataTable3_21
        STR      R0,[R1, #+0]
// 1068   LDC_CH1_SLOW_AVG = ( ( (LDC_CH1_SLOW_AVG << SLOW_AVG_POWER) - LDC_CH1_SLOW_AVG + LDC_CH1_INST_AVG ) >> SLOW_AVG_POWER );
        LDR.N    R0,??DataTable3_22
        LDR      R0,[R0, #+0]
        LDR.N    R1,??DataTable3_47
        LDRB     R1,[R1, #+0]
        LSLS     R0,R0,R1
        LDR.N    R1,??DataTable3_22
        LDR      R1,[R1, #+0]
        SUBS     R0,R0,R1
        LDR.N    R1,??DataTable3_13
        LDR      R1,[R1, #+0]
        ADDS     R0,R1,R0
        LDR.N    R1,??DataTable3_47
        LDRB     R1,[R1, #+0]
        LSRS     R0,R0,R1
        LDR.N    R1,??DataTable3_22
        STR      R0,[R1, #+0]
// 1069   LDC_CH2_SLOW_AVG = ( ( (LDC_CH2_SLOW_AVG << SLOW_AVG_POWER) - LDC_CH2_SLOW_AVG + LDC_CH2_INST_AVG ) >> SLOW_AVG_POWER );
        LDR.N    R0,??DataTable3_23
        LDR      R0,[R0, #+0]
        LDR.N    R1,??DataTable3_47
        LDRB     R1,[R1, #+0]
        LSLS     R0,R0,R1
        LDR.N    R1,??DataTable3_23
        LDR      R1,[R1, #+0]
        SUBS     R0,R0,R1
        LDR.N    R1,??DataTable3_14
        LDR      R1,[R1, #+0]
        ADDS     R0,R1,R0
        LDR.N    R1,??DataTable3_47
        LDRB     R1,[R1, #+0]
        LSRS     R0,R0,R1
        LDR.N    R1,??DataTable3_23
        STR      R0,[R1, #+0]
// 1070   LDC_CH3_SLOW_AVG = ( ( (LDC_CH3_SLOW_AVG << SLOW_AVG_POWER) - LDC_CH3_SLOW_AVG + LDC_CH3_INST_AVG ) >> SLOW_AVG_POWER );
        LDR.N    R0,??DataTable3_24
        LDR      R0,[R0, #+0]
        LDR.N    R1,??DataTable3_47
        LDRB     R1,[R1, #+0]
        LSLS     R0,R0,R1
        LDR.N    R1,??DataTable3_24
        LDR      R1,[R1, #+0]
        SUBS     R0,R0,R1
        LDR.N    R1,??DataTable3_15
        LDR      R1,[R1, #+0]
        ADDS     R0,R1,R0
        LDR.N    R1,??DataTable3_47
        LDRB     R1,[R1, #+0]
        LSRS     R0,R0,R1
        LDR.N    R1,??DataTable3_24
        STR      R0,[R1, #+0]
// 1071   
// 1072   LDC_CH0_THRESHOLD_1 = LDC_CH0_SLOW_AVG + LDC_CH0_THR_1;
        LDR.N    R0,??DataTable3_21
        LDR      R0,[R0, #+0]
        LDR.N    R1,??DataTable3_25
        LDR      R1,[R1, #+0]
        ADDS     R0,R1,R0
        LDR.N    R1,??DataTable3_26
        STR      R0,[R1, #+0]
// 1073   LDC_CH1_THRESHOLD_1 = LDC_CH1_SLOW_AVG + LDC_CH1_THR_1;
        LDR.N    R0,??DataTable3_22
        LDR      R0,[R0, #+0]
        LDR.N    R1,??DataTable3_27
        LDR      R1,[R1, #+0]
        ADDS     R0,R1,R0
        LDR.N    R1,??DataTable3_28
        STR      R0,[R1, #+0]
// 1074   LDC_CH2_THRESHOLD_1 = LDC_CH2_SLOW_AVG + LDC_CH2_THR_1;
        LDR.N    R0,??DataTable3_23
        LDR      R0,[R0, #+0]
        LDR.N    R1,??DataTable3_29
        LDR      R1,[R1, #+0]
        ADDS     R0,R1,R0
        LDR.N    R1,??DataTable3_30
        STR      R0,[R1, #+0]
// 1075   LDC_CH3_THRESHOLD_1 = LDC_CH3_SLOW_AVG + LDC_CH3_THR_1;
        LDR.N    R0,??DataTable3_24
        LDR      R0,[R0, #+0]
        LDR.N    R1,??DataTable3_31
        LDR      R1,[R1, #+0]
        ADDS     R0,R1,R0
        LDR.N    R1,??DataTable3_32
        STR      R0,[R1, #+0]
// 1076   
// 1077   LDC_CH0_THRESHOLD_2 = LDC_CH0_SLOW_AVG + LDC_CH0_THR_2;
        LDR.N    R0,??DataTable3_21
        LDR      R0,[R0, #+0]
        LDR.N    R1,??DataTable3_33
        LDR      R1,[R1, #+0]
        ADDS     R0,R1,R0
        LDR.N    R1,??DataTable3_34
        STR      R0,[R1, #+0]
// 1078   LDC_CH1_THRESHOLD_2 = LDC_CH1_SLOW_AVG + LDC_CH1_THR_2;
        LDR.N    R0,??DataTable3_22
        LDR      R0,[R0, #+0]
        LDR.N    R1,??DataTable3_35
        LDR      R1,[R1, #+0]
        ADDS     R0,R1,R0
        LDR.N    R1,??DataTable3_36
        STR      R0,[R1, #+0]
// 1079   LDC_CH2_THRESHOLD_2 = LDC_CH2_SLOW_AVG + LDC_CH2_THR_2;
        LDR.N    R0,??DataTable3_23
        LDR      R0,[R0, #+0]
        LDR.N    R1,??DataTable3_37
        LDR      R1,[R1, #+0]
        ADDS     R0,R1,R0
        LDR.N    R1,??DataTable3_38
        STR      R0,[R1, #+0]
// 1080   LDC_CH3_THRESHOLD_2 = LDC_CH3_SLOW_AVG + LDC_CH3_THR_2;
        LDR.N    R0,??DataTable3_24
        LDR      R0,[R0, #+0]
        LDR.N    R1,??DataTable3_39
        LDR      R1,[R1, #+0]
        ADDS     R0,R1,R0
        LDR.N    R1,??DataTable3_40
        STR      R0,[R1, #+0]
// 1081   
// 1082   if(LDC_CH0_INST_AVG >= LDC_CH0_THRESHOLD_2)
        LDR.N    R0,??DataTable3_12
        LDR      R0,[R0, #+0]
        LDR.N    R1,??DataTable3_34
        LDR      R1,[R1, #+0]
        CMP      R0,R1
        BCC.N    ??LDC1614_button_press_IIR_algorithm_1
// 1083   {
// 1084     //Set button push flag
// 1085     LDC_CH0_PUSH = 2;
        MOVS     R0,#+2
        LDR.N    R1,??DataTable3_41
        STRB     R0,[R1, #+0]
        B.N      ??LDC1614_button_press_IIR_algorithm_2
// 1086   }
// 1087   else if(LDC_CH0_INST_AVG >= LDC_CH0_THRESHOLD_1)
??LDC1614_button_press_IIR_algorithm_1:
        LDR.N    R0,??DataTable3_12
        LDR      R0,[R0, #+0]
        LDR.N    R1,??DataTable3_26
        LDR      R1,[R1, #+0]
        CMP      R0,R1
        BCC.N    ??LDC1614_button_press_IIR_algorithm_3
// 1088   {
// 1089     LDC_CH0_PUSH = 1;
        MOVS     R0,#+1
        LDR.N    R1,??DataTable3_41
        STRB     R0,[R1, #+0]
        B.N      ??LDC1614_button_press_IIR_algorithm_2
// 1090   }
// 1091   else
// 1092   {
// 1093     //Clear button push flag
// 1094     LDC_CH0_PUSH = 0;
??LDC1614_button_press_IIR_algorithm_3:
        MOVS     R0,#+0
        LDR.N    R1,??DataTable3_41
        STRB     R0,[R1, #+0]
// 1095   }
// 1096   
// 1097   if(LDC_CH1_INST_AVG >= LDC_CH1_THRESHOLD_2)
??LDC1614_button_press_IIR_algorithm_2:
        LDR.N    R0,??DataTable3_13
        LDR      R0,[R0, #+0]
        LDR.N    R1,??DataTable3_36
        LDR      R1,[R1, #+0]
        CMP      R0,R1
        BCC.N    ??LDC1614_button_press_IIR_algorithm_4
// 1098   {
// 1099     //Set button push flag
// 1100     LDC_CH1_PUSH = 2;
        MOVS     R0,#+2
        LDR.N    R1,??DataTable3_42
        STRB     R0,[R1, #+0]
        B.N      ??LDC1614_button_press_IIR_algorithm_5
// 1101   }
// 1102   else if(LDC_CH1_INST_AVG >= LDC_CH1_THRESHOLD_1)
??LDC1614_button_press_IIR_algorithm_4:
        LDR.N    R0,??DataTable3_13
        LDR      R0,[R0, #+0]
        LDR.N    R1,??DataTable3_28
        LDR      R1,[R1, #+0]
        CMP      R0,R1
        BCC.N    ??LDC1614_button_press_IIR_algorithm_6
// 1103   {
// 1104     LDC_CH1_PUSH = 1;
        MOVS     R0,#+1
        LDR.N    R1,??DataTable3_42
        STRB     R0,[R1, #+0]
        B.N      ??LDC1614_button_press_IIR_algorithm_5
// 1105   }
// 1106   else
// 1107   {
// 1108     //Clear button push flag
// 1109     LDC_CH1_PUSH = 0;
??LDC1614_button_press_IIR_algorithm_6:
        MOVS     R0,#+0
        LDR.N    R1,??DataTable3_42
        STRB     R0,[R1, #+0]
// 1110   }
// 1111   
// 1112   if(LDC_CH2_INST_AVG >= LDC_CH2_THRESHOLD_2)
??LDC1614_button_press_IIR_algorithm_5:
        LDR.N    R0,??DataTable3_14
        LDR      R0,[R0, #+0]
        LDR.N    R1,??DataTable3_38
        LDR      R1,[R1, #+0]
        CMP      R0,R1
        BCC.N    ??LDC1614_button_press_IIR_algorithm_7
// 1113   {
// 1114     //Set button push flag
// 1115     LDC_CH2_PUSH = 2;
        MOVS     R0,#+2
        LDR.N    R1,??DataTable3_43
        STRB     R0,[R1, #+0]
        B.N      ??LDC1614_button_press_IIR_algorithm_8
// 1116   }
// 1117   else if(LDC_CH2_INST_AVG >= LDC_CH2_THRESHOLD_1)
??LDC1614_button_press_IIR_algorithm_7:
        LDR.N    R0,??DataTable3_14
        LDR      R0,[R0, #+0]
        LDR.N    R1,??DataTable3_30
        LDR      R1,[R1, #+0]
        CMP      R0,R1
        BCC.N    ??LDC1614_button_press_IIR_algorithm_9
// 1118   {
// 1119     LDC_CH2_PUSH = 1;
        MOVS     R0,#+1
        LDR.N    R1,??DataTable3_43
        STRB     R0,[R1, #+0]
        B.N      ??LDC1614_button_press_IIR_algorithm_8
// 1120   }
// 1121   else
// 1122   {
// 1123     //Clear button push flag
// 1124     LDC_CH2_PUSH = 0;
??LDC1614_button_press_IIR_algorithm_9:
        MOVS     R0,#+0
        LDR.N    R1,??DataTable3_43
        STRB     R0,[R1, #+0]
// 1125   }
// 1126   
// 1127   if(LDC_CH3_INST_AVG >= LDC_CH3_THRESHOLD_2)
??LDC1614_button_press_IIR_algorithm_8:
        LDR.N    R0,??DataTable3_15
        LDR      R0,[R0, #+0]
        LDR.N    R1,??DataTable3_40
        LDR      R1,[R1, #+0]
        CMP      R0,R1
        BCC.N    ??LDC1614_button_press_IIR_algorithm_10
// 1128   {
// 1129     //Set button push flag
// 1130     LDC_CH3_PUSH = 2;
        MOVS     R0,#+2
        LDR.N    R1,??DataTable3_44
        STRB     R0,[R1, #+0]
        B.N      ??LDC1614_button_press_IIR_algorithm_11
// 1131   }
// 1132   else if(LDC_CH3_INST_AVG >= LDC_CH3_THRESHOLD_1){
??LDC1614_button_press_IIR_algorithm_10:
        LDR.N    R0,??DataTable3_15
        LDR      R0,[R0, #+0]
        LDR.N    R1,??DataTable3_32
        LDR      R1,[R1, #+0]
        CMP      R0,R1
        BCC.N    ??LDC1614_button_press_IIR_algorithm_12
// 1133     LDC_CH3_PUSH = 1;
        MOVS     R0,#+1
        LDR.N    R1,??DataTable3_44
        STRB     R0,[R1, #+0]
        B.N      ??LDC1614_button_press_IIR_algorithm_11
// 1134   }
// 1135   else
// 1136   {
// 1137     //Clear button push flag
// 1138     LDC_CH3_PUSH = 0;
??LDC1614_button_press_IIR_algorithm_12:
        MOVS     R0,#+0
        LDR.N    R1,??DataTable3_44
        STRB     R0,[R1, #+0]
// 1139   }
// 1140   
// 1141 }
??LDC1614_button_press_IIR_algorithm_11:
        BX       LR               ;; return

        SECTION `.text`:CODE:NOROOT(2)
        SECTION_TYPE SHT_PROGBITS, 0
        DATA
??DataTable3:
        DC32     LDC_data

        SECTION `.text`:CODE:NOROOT(2)
        SECTION_TYPE SHT_PROGBITS, 0
        DATA
??DataTable3_1:
        DC32     LDC_flag

        SECTION `.text`:CODE:NOROOT(2)
        SECTION_TYPE SHT_PROGBITS, 0
        DATA
??DataTable3_2:
        DC32     LDC_STATUS

        SECTION `.text`:CODE:NOROOT(2)
        SECTION_TYPE SHT_PROGBITS, 0
        DATA
??DataTable3_3:
        DC32     LDC_CH0_SUM_1

        SECTION `.text`:CODE:NOROOT(2)
        SECTION_TYPE SHT_PROGBITS, 0
        DATA
??DataTable3_4:
        DC32     LDC_CH0_DATA

        SECTION `.text`:CODE:NOROOT(2)
        SECTION_TYPE SHT_PROGBITS, 0
        DATA
??DataTable3_5:
        DC32     LDC_CH1_SUM_1

        SECTION `.text`:CODE:NOROOT(2)
        SECTION_TYPE SHT_PROGBITS, 0
        DATA
??DataTable3_6:
        DC32     LDC_CH1_DATA

        SECTION `.text`:CODE:NOROOT(2)
        SECTION_TYPE SHT_PROGBITS, 0
        DATA
??DataTable3_7:
        DC32     LDC_CH2_SUM_1

        SECTION `.text`:CODE:NOROOT(2)
        SECTION_TYPE SHT_PROGBITS, 0
        DATA
??DataTable3_8:
        DC32     LDC_CH2_DATA

        SECTION `.text`:CODE:NOROOT(2)
        SECTION_TYPE SHT_PROGBITS, 0
        DATA
??DataTable3_9:
        DC32     LDC_CH3_SUM_1

        SECTION `.text`:CODE:NOROOT(2)
        SECTION_TYPE SHT_PROGBITS, 0
        DATA
??DataTable3_10:
        DC32     LDC_CH3_DATA

        SECTION `.text`:CODE:NOROOT(2)
        SECTION_TYPE SHT_PROGBITS, 0
        DATA
??DataTable3_11:
        DC32     RUNNING_AVG_INDEX1

        SECTION `.text`:CODE:NOROOT(2)
        SECTION_TYPE SHT_PROGBITS, 0
        DATA
??DataTable3_12:
        DC32     LDC_CH0_INST_AVG

        SECTION `.text`:CODE:NOROOT(2)
        SECTION_TYPE SHT_PROGBITS, 0
        DATA
??DataTable3_13:
        DC32     LDC_CH1_INST_AVG

        SECTION `.text`:CODE:NOROOT(2)
        SECTION_TYPE SHT_PROGBITS, 0
        DATA
??DataTable3_14:
        DC32     LDC_CH2_INST_AVG

        SECTION `.text`:CODE:NOROOT(2)
        SECTION_TYPE SHT_PROGBITS, 0
        DATA
??DataTable3_15:
        DC32     LDC_CH3_INST_AVG

        SECTION `.text`:CODE:NOROOT(2)
        SECTION_TYPE SHT_PROGBITS, 0
        DATA
??DataTable3_16:
        DC32     LDC_CH0_SUM_2

        SECTION `.text`:CODE:NOROOT(2)
        SECTION_TYPE SHT_PROGBITS, 0
        DATA
??DataTable3_17:
        DC32     LDC_CH1_SUM_2

        SECTION `.text`:CODE:NOROOT(2)
        SECTION_TYPE SHT_PROGBITS, 0
        DATA
??DataTable3_18:
        DC32     LDC_CH2_SUM_2

        SECTION `.text`:CODE:NOROOT(2)
        SECTION_TYPE SHT_PROGBITS, 0
        DATA
??DataTable3_19:
        DC32     LDC_CH3_SUM_2

        SECTION `.text`:CODE:NOROOT(2)
        SECTION_TYPE SHT_PROGBITS, 0
        DATA
??DataTable3_20:
        DC32     RUNNING_AVG_INDEX2

        SECTION `.text`:CODE:NOROOT(2)
        SECTION_TYPE SHT_PROGBITS, 0
        DATA
??DataTable3_21:
        DC32     LDC_CH0_SLOW_AVG

        SECTION `.text`:CODE:NOROOT(2)
        SECTION_TYPE SHT_PROGBITS, 0
        DATA
??DataTable3_22:
        DC32     LDC_CH1_SLOW_AVG

        SECTION `.text`:CODE:NOROOT(2)
        SECTION_TYPE SHT_PROGBITS, 0
        DATA
??DataTable3_23:
        DC32     LDC_CH2_SLOW_AVG

        SECTION `.text`:CODE:NOROOT(2)
        SECTION_TYPE SHT_PROGBITS, 0
        DATA
??DataTable3_24:
        DC32     LDC_CH3_SLOW_AVG

        SECTION `.text`:CODE:NOROOT(2)
        SECTION_TYPE SHT_PROGBITS, 0
        DATA
??DataTable3_25:
        DC32     LDC_CH0_THR_1

        SECTION `.text`:CODE:NOROOT(2)
        SECTION_TYPE SHT_PROGBITS, 0
        DATA
??DataTable3_26:
        DC32     LDC_CH0_THRESHOLD_1

        SECTION `.text`:CODE:NOROOT(2)
        SECTION_TYPE SHT_PROGBITS, 0
        DATA
??DataTable3_27:
        DC32     LDC_CH1_THR_1

        SECTION `.text`:CODE:NOROOT(2)
        SECTION_TYPE SHT_PROGBITS, 0
        DATA
??DataTable3_28:
        DC32     LDC_CH1_THRESHOLD_1

        SECTION `.text`:CODE:NOROOT(2)
        SECTION_TYPE SHT_PROGBITS, 0
        DATA
??DataTable3_29:
        DC32     LDC_CH2_THR_1

        SECTION `.text`:CODE:NOROOT(2)
        SECTION_TYPE SHT_PROGBITS, 0
        DATA
??DataTable3_30:
        DC32     LDC_CH2_THRESHOLD_1

        SECTION `.text`:CODE:NOROOT(2)
        SECTION_TYPE SHT_PROGBITS, 0
        DATA
??DataTable3_31:
        DC32     LDC_CH3_THR_1

        SECTION `.text`:CODE:NOROOT(2)
        SECTION_TYPE SHT_PROGBITS, 0
        DATA
??DataTable3_32:
        DC32     LDC_CH3_THRESHOLD_1

        SECTION `.text`:CODE:NOROOT(2)
        SECTION_TYPE SHT_PROGBITS, 0
        DATA
??DataTable3_33:
        DC32     LDC_CH0_THR_2

        SECTION `.text`:CODE:NOROOT(2)
        SECTION_TYPE SHT_PROGBITS, 0
        DATA
??DataTable3_34:
        DC32     LDC_CH0_THRESHOLD_2

        SECTION `.text`:CODE:NOROOT(2)
        SECTION_TYPE SHT_PROGBITS, 0
        DATA
??DataTable3_35:
        DC32     LDC_CH1_THR_2

        SECTION `.text`:CODE:NOROOT(2)
        SECTION_TYPE SHT_PROGBITS, 0
        DATA
??DataTable3_36:
        DC32     LDC_CH1_THRESHOLD_2

        SECTION `.text`:CODE:NOROOT(2)
        SECTION_TYPE SHT_PROGBITS, 0
        DATA
??DataTable3_37:
        DC32     LDC_CH2_THR_2

        SECTION `.text`:CODE:NOROOT(2)
        SECTION_TYPE SHT_PROGBITS, 0
        DATA
??DataTable3_38:
        DC32     LDC_CH2_THRESHOLD_2

        SECTION `.text`:CODE:NOROOT(2)
        SECTION_TYPE SHT_PROGBITS, 0
        DATA
??DataTable3_39:
        DC32     LDC_CH3_THR_2

        SECTION `.text`:CODE:NOROOT(2)
        SECTION_TYPE SHT_PROGBITS, 0
        DATA
??DataTable3_40:
        DC32     LDC_CH3_THRESHOLD_2

        SECTION `.text`:CODE:NOROOT(2)
        SECTION_TYPE SHT_PROGBITS, 0
        DATA
??DataTable3_41:
        DC32     LDC_CH0_PUSH

        SECTION `.text`:CODE:NOROOT(2)
        SECTION_TYPE SHT_PROGBITS, 0
        DATA
??DataTable3_42:
        DC32     LDC_CH1_PUSH

        SECTION `.text`:CODE:NOROOT(2)
        SECTION_TYPE SHT_PROGBITS, 0
        DATA
??DataTable3_43:
        DC32     LDC_CH2_PUSH

        SECTION `.text`:CODE:NOROOT(2)
        SECTION_TYPE SHT_PROGBITS, 0
        DATA
??DataTable3_44:
        DC32     LDC_CH3_PUSH

        SECTION `.text`:CODE:NOROOT(2)
        SECTION_TYPE SHT_PROGBITS, 0
        DATA
??DataTable3_45:
        DC32     FIRST_RUN

        SECTION `.text`:CODE:NOROOT(2)
        SECTION_TYPE SHT_PROGBITS, 0
        DATA
??DataTable3_46:
        DC32     INST_AVG_POWER

        SECTION `.text`:CODE:NOROOT(2)
        SECTION_TYPE SHT_PROGBITS, 0
        DATA
??DataTable3_47:
        DC32     SLOW_AVG_POWER

        SECTION `.iar_vfe_header`:DATA:NOALLOC:NOROOT(2)
        SECTION_TYPE SHT_PROGBITS, 0
        DATA
        DC32 0

        SECTION __DLIB_PERTHREAD:DATA:REORDER:NOROOT(0)
        SECTION_TYPE SHT_PROGBITS, 0

        SECTION __DLIB_PERTHREAD_init:DATA:REORDER:NOROOT(0)
        SECTION_TYPE SHT_PROGBITS, 0

        END
// 1142 //*****************************************************************************
// 1143 // Interrupt Service Routines
// 1144 //*****************************************************************************
// 
//   144 bytes in section .bss
//    35 bytes in section .data
// 2 160 bytes in section .text
// 
// 2 160 bytes of CODE memory
//   179 bytes of DATA memory
//
//Errors: none
//Warnings: none
